_ZN2nn2fs19MountSdCardForDebugEPKc = __sdk_start + 0xdd800;
_ZN2nn2ro12LookupSymbolEPmPKc = __sdk_start + 0x135d10;
_ZN2nn3hid6detail10GetXpadIdsEPiPNS0_11BasicXpadIdEi = __sdk_start + 0x490240;
_ZN2nn3hid6detail14InitializeXpadERKNS0_11BasicXpadIdE = __sdk_start + 0x490300;
_ZN2nn3hid6detail12FinalizeXpadERKNS0_11BasicXpadIdE = __sdk_start + 0x490380;
_ZN2nn3hid6detail30InitializeConsoleSixAxisSensorEv = __sdk_start + 0x490400;
_ZN2nn3hid6detail28FinalizeConsoleSixAxisSensorEv = __sdk_start + 0x490510;
_ZN2nn3hid6detail18StartSixAxisSensorERKNS0_26ConsoleSixAxisSensorHandleE = __sdk_start + 0x4905b0;
_ZN2nn3hid6detail17StopSixAxisSensorERKNS0_26ConsoleSixAxisSensorHandleE = __sdk_start + 0x490630;
_ZN2nn3hid6detail28InitializeSevenSixAxisSensorEPvm = __sdk_start + 0x4906b0;
_ZN2nn3hid6detail26FinalizeSevenSixAxisSensorEv = __sdk_start + 0x4908a0;
_ZN2nn3hid6detail23StartSevenSixAxisSensorEv = __sdk_start + 0x490990;
_ZN2nn3hid6detail22StopSevenSixAxisSensorEv = __sdk_start + 0x490a00;
_ZN2nn3hid6detail27GetSevenSixAxisSensorStatesEPiPNS0_23SevenSixAxisSensorStateEi = __sdk_start + 0x490a70;
_ZN2nn3hid6detail26IsSevenSixAxisSensorAtRestEPb = __sdk_start + 0x490c40;
_ZN2nn3hid6detail32ResetSevenSixAxisSensorTimestampEv = __sdk_start + 0x490d10;
_ZN2nn3hid6detail20GetSensorFusionErrorEPf = __sdk_start + 0x490d80;
_ZN2nn3hid6detail11GetGyroBiasEPNS_4util6Float3E = __sdk_start + 0x490e50;
_ZN2nn3hid6detail35SetSevenSixAxisSensorFusionStrengthEf = __sdk_start + 0x490f20;
_ZN2nn3hid6detail35GetSevenSixAxisSensorFusionStrengthEPf = __sdk_start + 0x490fb0;
_ZN2nn3hid6detail18InitializeDebugPadEv = __sdk_start + 0x491090;
_ZN2nn3hid6detail16FinalizeDebugPadEv = __sdk_start + 0x491140;
_ZN2nn3hid6detail16GetDebugPadStateEPNS0_13DebugPadStateE = __sdk_start + 0x4911d0;
_ZN2nn3hid6detail17GetDebugPadStatesEPiPNS0_13DebugPadStateEi = __sdk_start + 0x491360;
_ZN2nn3hid6detail19InitializeDigitizerEv = __sdk_start + 0x491640;
_ZN2nn3hid6detail17FinalizeDigitizerEv = __sdk_start + 0x491700;
_ZN2nn3hid6detail17GetDigitizerStateEPNS0_14DigitizerStateE = __sdk_start + 0x4917a0;
_ZN2nn3hid6detail18GetDigitizerStatesEPiPNS0_14DigitizerStateEi = __sdk_start + 0x491960;
_ZN2nn3hid6detail17InitializeGestureEv = __sdk_start + 0x491c50;
_ZN2nn3hid6detail15FinalizeGestureEv = __sdk_start + 0x491d10;
_ZN2nn3hid6detail16GetGestureStatesEPiPNS0_12GestureStateEi = __sdk_start + 0x491db0;
_ZN2nn3hid6detail18InitializeKeyboardEv = __sdk_start + 0x4920b0;
_ZN2nn3hid6detail16FinalizeKeyboardEv = __sdk_start + 0x492160;
_ZN2nn3hid6detail16GetKeyboardStateEPNS0_13KeyboardStateE = __sdk_start + 0x4921f0;
_ZN2nn3hid6detail17GetKeyboardStatesEPiPNS0_13KeyboardStateEi = __sdk_start + 0x492380;
_ZN2nn3hid6detail24SendKeyboardLockKeyEventENS_4util10BitFlagSetILi32ENS0_20KeyboardLockKeyEventEEE = __sdk_start + 0x492560;
_ZN2nn3hid6detail15InitializeMouseEv = __sdk_start + 0x492700;
_ZN2nn3hid6detail13FinalizeMouseEv = __sdk_start + 0x4927b0;
_ZN2nn3hid6detail13GetMouseStateEPNS0_10MouseStateE = __sdk_start + 0x492840;
_ZN2nn3hid6detail14GetMouseStatesEPiPNS0_10MouseStateEi = __sdk_start + 0x4929d0;
_ZN2nn3hid6detail37IsFirmwareUpdateNeededForNotificationEPb = __sdk_start + 0x492cc0;
_ZN2nn3hid6detail24SetSupportedNpadStyleSetENS_4util10BitFlagSetILi32ENS0_12NpadStyleTagEEE = __sdk_start + 0x492d50;
_ZN2nn3hid6detail24GetSupportedNpadStyleSetEPNS_4util10BitFlagSetILi32ENS0_12NpadStyleTagEEE = __sdk_start + 0x492dc0;
_ZN2nn3hid6detail22SetSupportedNpadIdTypeEPKji = __sdk_start + 0x492e30;
_ZN2nn3hid6detail18SetNpadJoyHoldTypeENS0_15NpadJoyHoldTypeE = __sdk_start + 0x492eb0;
_ZN2nn3hid6detail18GetNpadJoyHoldTypeEPNS0_15NpadJoyHoldTypeE = __sdk_start + 0x492f20;
_ZN2nn3hid6detail21StartLrAssignmentModeEv = __sdk_start + 0x492fb0;
_ZN2nn3hid6detail20StopLrAssignmentModeEv = __sdk_start + 0x493010;
_ZN2nn3hid6detail29SetNpadHandheldActivationModeENS0_26NpadHandheldActivationModeE = __sdk_start + 0x493070;
_ZN2nn3hid6detail29GetNpadHandheldActivationModeEPNS0_26NpadHandheldActivationModeE = __sdk_start + 0x4930e0;
_ZN2nn3hid6detail24SetNpadCommunicationModeENS0_21NpadCommunicationModeE = __sdk_start + 0x493170;
_ZN2nn3hid6detail24GetNpadCommunicationModeEPNS0_21NpadCommunicationModeE = __sdk_start + 0x4931e0;
_ZN2nn3hid6detail41EnableUnintendedHomeButtonInputProtectionERKjb = __sdk_start + 0x493260;
_ZN2nn3hid6detail27BindNpadStyleSetUpdateEventERKjPNS_2os15SystemEventTypeENS4_14EventClearModeE = __sdk_start + 0x4932e0;
_ZN2nn3hid6detail14DisconnectNpadERKj = __sdk_start + 0x4933b0;
_ZN2nn3hid6detail19GetPlayerLedPatternEPhRKj = __sdk_start + 0x493430;
_ZN2nn3hid6detail30SetNpadJoyAssignmentModeSingleERKj = __sdk_start + 0x4934c0;
_ZN2nn3hid6detail30SetNpadJoyAssignmentModeSingleERKjNS0_17NpadJoyDeviceTypeE = __sdk_start + 0x493540;
_ZN2nn3hid6detail30SetNpadJoyAssignmentModeSingleEPbPjRKjNS0_17NpadJoyDeviceTypeE = __sdk_start + 0x4935d0;
_ZN2nn3hid6detail28SetNpadJoyAssignmentModeDualERKj = __sdk_start + 0x493670;
_ZN2nn3hid6detail23MergeSingleJoyAsDualJoyERKjS3_ = __sdk_start + 0x4936f0;
_ZN2nn3hid6detail18SwapNpadAssignmentERKjS3_ = __sdk_start + 0x493780;
_ZN2nn3hid6detail32SetNpadAnalogStickUseCenterClampEb = __sdk_start + 0x493810;
_ZN2nn3hid6detail30SetNpadCaptureButtonAssignmentENS_4util10BitFlagSetILi32ENS0_12NpadStyleTagEEENS3_ILi64ENS0_10NpadButtonEEE = __sdk_start + 0x493890;
_ZN2nn3hid6detail32ClearNpadCaptureButtonAssignmentEv = __sdk_start + 0x493920;
_ZN2nn3hid6detail28GetNpadOfHighestBatteryLevelEPjPKji = __sdk_start + 0x493990;
_ZN2nn3hid6detail24NpadSharedMemoryAccessorC2Ev = __sdk_start + 0x493a2c;
_ZN2nn3hid6detail24NpadSharedMemoryAccessorD1Ev = __sdk_start + 0x493b08;
_ZN2nn3hid6detail24NpadSharedMemoryAccessorD0Ev = __sdk_start + 0x493b0c;
_ZN2nn3hid6detail24NpadSharedMemoryAccessor28SetControlPadRestrictionTypeENS_4util10BitFlagSetILi32ENS0_12NpadStyleTagEEENS0_25ControlPadRestrictionTypeE = __sdk_start + 0x493b54;
_ZN2nn3hid6detail24NpadSharedMemoryAccessor28GetControlPadRestrictionTypeEj = __sdk_start + 0x493cd8;
_ZN2nn3hid6detail24NpadSharedMemoryAccessor27EnableControlPadRestrictionERKNS_4util10BitFlagSetILi32ENS0_12NpadStyleTagEEEb = __sdk_start + 0x493ce4;
_ZN2nn3hid6detail24NpadSharedMemoryAccessor30IsControlPadRestrictionEnabledEj = __sdk_start + 0x493d1c;
_ZN2nn3hid6detail24NpadSharedMemoryAccessor28GetControlPadRestrictionTypeENS_4util10BitFlagSetILi32ENS0_12NpadStyleTagEEE = __sdk_start + 0x493d28;
_ZN2nn3hid6detail24NpadSharedMemoryAccessor6AttachEPNS0_6server18SharedMemoryFormatE = __sdk_start + 0x493fb0;
_ZN2nn3hid6detail24NpadSharedMemoryAccessor6DetachEv = __sdk_start + 0x4940e8;
_ZN2nn3hid6detail27GetNpadSharedMemoryAccessorEv = __sdk_start + 0x4941b0;
_ZN2nn3hid6detail18NpadSessionManagerINS1_24NpadSharedMemoryAccessorEE10GetSessionEv = __sdk_start + 0x49421c;
_ZN2nn3hid6detail14InitializeNpadEv = __sdk_start + 0x494330;
_ZN2nn3hid6detail12FinalizeNpadEv = __sdk_start + 0x494390;
_ZN2nn3hid6detail15GetNpadStyleSetEPNS_4util10BitFlagSetILi32ENS0_12NpadStyleTagEEERKj = __sdk_start + 0x4943c0;
_ZN2nn3hid6detail20GetNpadJoyAssignmentEPNS0_21NpadJoyAssignmentModeERKj = __sdk_start + 0x494430;
_ZN2nn3hid6detail22GetNpadControllerColorEPNS0_19NpadControllerColorERKj = __sdk_start + 0x4944b0;
_ZN2nn3hid6detail22GetNpadControllerColorEPNS0_19NpadControllerColorES3_RKj = __sdk_start + 0x494550;
_ZN2nn3hid6detail13GetNpadStatesEPiPNS0_16NpadFullKeyStateEiRKj = __sdk_start + 0x494600;
_ZN2nn3hid6detail13GetNpadStatesEPiPNS0_17NpadHandheldStateEiRKj = __sdk_start + 0x4947e0;
_ZN2nn3hid6detail13GetNpadStatesEPiPNS0_16NpadJoyDualStateEiRKj = __sdk_start + 0x4949d0;
_ZN2nn3hid6detail13GetNpadStatesEPiPNS0_16NpadJoyLeftStateEiRKj = __sdk_start + 0x494bc0;
_ZN2nn3hid6detail13GetNpadStatesEPiPNS0_17NpadJoyRightStateEiRKj = __sdk_start + 0x494db0;
_ZN2nn3hid6detail13GetNpadStatesEPiPNS0_11NpadGcStateEiRKj = __sdk_start + 0x494fa0;
_ZN2nn3hid6detail13GetNpadStatesEPiPNS0_13NpadLarkStateEiRKj = __sdk_start + 0x495270;
_ZN2nn3hid6detail13GetNpadStatesEPiPNS0_21NpadHandheldLarkStateEiRKj = __sdk_start + 0x495460;
_ZN2nn3hid6detail13GetNpadStatesEPiPNS0_14NpadLuciaStateEiRKj = __sdk_start + 0x495680;
_ZN2nn3hid6detail13GetNpadStatesEPiPNS0_14NpadPalmaStateEiRKj = __sdk_start + 0x495870;
_ZN2nn3hid6detail13GetNpadStatesEPiPNS0_6system15NpadSystemStateEiRKj = __sdk_start + 0x4959d0;
_ZN2nn3hid6detail13GetNpadStatesEPiPNS0_6system18NpadSystemExtStateEiRKj = __sdk_start + 0x495c50;
_ZN2nn3hid6detail13GetNpadStatesEPiPNS0_14NpadLagerStateEiRKj = __sdk_start + 0x495e50;
_ZN2nn3hid6detail22GetSixAxisSensorStatesEPiPNS0_18SixAxisSensorStateEiRKjNS_4util10BitFlagSetILi32ENS0_12NpadStyleTagEEE = __sdk_start + 0x496040;
_ZN2nn3hid6detail27GetSixAxisSensorRightStatesEPiPNS0_18SixAxisSensorStateEiRKjNS_4util10BitFlagSetILi32ENS0_12NpadStyleTagEEE = __sdk_start + 0x4961f0;
_ZN2nn3hid6detail26GetSixAxisSensorLeftStatesEPiPNS0_18SixAxisSensorStateEiRKjNS_4util10BitFlagSetILi32ENS0_12NpadStyleTagEEE = __sdk_start + 0x496390;
_ZN2nn3hid6detail17GetNpadDeviceTypeEPNS_4util10BitFlagSetILi32ENS0_6system10DeviceTypeEEERKj = __sdk_start + 0x496530;
_ZN2nn3hid6detail16GetNpadPowerInfoEPNS0_6system9PowerInfoERKj = __sdk_start + 0x4965b0;
_ZN2nn3hid6detail16GetNpadPowerInfoEPNS0_6system9PowerInfoES4_RKj = __sdk_start + 0x496650;
_ZN2nn3hid6detail26IsUnsupportedButtonPressedEPbRKjRKNS_4util10BitFlagSetILi32ENS0_12NpadStyleTagEEE = __sdk_start + 0x496730;
_ZN2nn3hid6detail20IsAbxyButtonOrientedEPbRKj = __sdk_start + 0x4967e0;
_ZN2nn3hid6detail20IsSlSrButtonOrientedEPbRKj = __sdk_start + 0x496860;
_ZN2nn3hid6detail28GetPlusMinusButtonCapabilityEPbS2_RKj = __sdk_start + 0x4968e0;
_ZN2nn3hid6detail29IsDirectionalButtonsSupportedEPbRKj = __sdk_start + 0x496970;
_ZN2nn3hid6detail28SetControlPadRestrictionTypeENS_4util10BitFlagSetILi32ENS0_12NpadStyleTagEEENS0_25ControlPadRestrictionTypeE = __sdk_start + 0x4969f0;
_ZN2nn3hid6detail28GetControlPadRestrictionTypeENS_4util10BitFlagSetILi32ENS0_12NpadStyleTagEEEPNS0_25ControlPadRestrictionTypeE = __sdk_start + 0x496a40;
_ZN2nn3hid6detail27EnableControlPadRestrictionERKNS_4util10BitFlagSetILi32ENS0_12NpadStyleTagEEEb = __sdk_start + 0x496a90;
_ZN2nn3hid6detail44IsUnintendedHomeButtonInputProtectionEnabledEPbRKj = __sdk_start + 0x496ae0;
_ZN2nn3hid6detail22GetAppletFooterUiTypesEPNS0_6system18AppletFooterUiTypeERKj = __sdk_start + 0x496b60;
_ZN2nn3hid6detail30GetAppletFooterUiAttributesSetEPNS_4util10BitFlagSetILi32ENS0_6system23AppletFooterUiAttributeEEERKj = __sdk_start + 0x496be0;
_ZN2nn3hid6detail16GetNpadLagerTypeEPNS0_13NpadLagerTypeERKj = __sdk_start + 0x496c60;
_ZN2nn3hid6detail50IsSixAxisSensorDeviceNewlyAssignedFromSharedMemoryEPbRKjRKNS0_7utility29SixAxisSensorHandleIdxForNpadE = __sdk_start + 0x496ce0;
_ZN2nn3hid6detail57IsFirmwareUpdateAvailableForSixAxisSensorFromSharedMemoryEPbRKjRKNS0_7utility29SixAxisSensorHandleIdxForNpadE = __sdk_start + 0x496d70;
_ZN2nn3hid6detail24GetPalmaConnectionHandleEPNS0_21PalmaConnectionHandleERKj = __sdk_start + 0x496e00;
_ZN2nn3hid6detail15InitializePalmaERKNS0_21PalmaConnectionHandleE = __sdk_start + 0x496e70;
_ZN2nn3hid6detail31BindPalmaOperationCompleteEventERKNS0_21PalmaConnectionHandleEPNS_2os15SystemEventTypeENS5_14EventClearModeE = __sdk_start + 0x496ed0;
_ZN2nn3hid6detail21GetPalmaOperationInfoEPNS0_18PalmaOperationInfoERKNS0_21PalmaConnectionHandleE = __sdk_start + 0x496f80;
_ZN2nn3hid6detail17PlayPalmaActivityERKNS0_21PalmaConnectionHandleERKt = __sdk_start + 0x497070;
_ZN2nn3hid6detail18SetPalmaFrModeTypeERKNS0_21PalmaConnectionHandleERKNS0_15PalmaFrModeTypeE = __sdk_start + 0x4970e0;
_ZN2nn3hid6detail13ReadPalmaStepERKNS0_21PalmaConnectionHandleE = __sdk_start + 0x497150;
_ZN2nn3hid6detail15EnablePalmaStepERKNS0_21PalmaConnectionHandleEb = __sdk_start + 0x4971b0;
_ZN2nn3hid6detail14ResetPalmaStepERKNS0_21PalmaConnectionHandleE = __sdk_start + 0x497220;
_ZN2nn3hid6detail27ReadPalmaApplicationSectionERKNS0_21PalmaConnectionHandleEim = __sdk_start + 0x497280;
_ZN2nn3hid6detail28WritePalmaApplicationSectionERKNS0_21PalmaConnectionHandleEimRKNS0_35PalmaApplicationSectionAccessBufferE = __sdk_start + 0x4972f0;
_ZN2nn3hid6detail19ReadPalmaUniqueCodeERKNS0_21PalmaConnectionHandleE = __sdk_start + 0x497370;
_ZN2nn3hid6detail25SetPalmaUniqueCodeInvalidERKNS0_21PalmaConnectionHandleE = __sdk_start + 0x4973d0;
_ZN2nn3hid6detail23WritePalmaActivityEntryERKNS0_21PalmaConnectionHandleERKtPKNS0_18PalmaActivityEntryE = __sdk_start + 0x497430;
_ZN2nn3hid6detail28WritePalmaRgbLedPatternEntryERKNS0_21PalmaConnectionHandleERKtPKvm = __sdk_start + 0x4974b0;
_ZN2nn3hid6detail19WritePalmaWaveEntryERKNS0_21PalmaConnectionHandleERKNS0_12PalmaWaveSetERKtPKvmm = __sdk_start + 0x497530;
_ZN2nn3hid6detail37SetPalmaDataBaseIdentificationVersionERKNS0_21PalmaConnectionHandleEi = __sdk_start + 0x497630;
_ZN2nn3hid6detail37GetPalmaDataBaseIdentificationVersionERKNS0_21PalmaConnectionHandleE = __sdk_start + 0x4976a0;
_ZN2nn3hid6detail19SuspendPalmaFeatureERKNS0_21PalmaConnectionHandleERKNS_4util10BitFlagSetILi32ENS0_12PalmaFeatureEEE = __sdk_start + 0x497700;
_ZN2nn3hid6detail16ReadPalmaPlayLogERKNS0_21PalmaConnectionHandleERKt = __sdk_start + 0x497770;
_ZN2nn3hid6detail17ResetPalmaPlayLogERKNS0_21PalmaConnectionHandleERKt = __sdk_start + 0x4977e0;
_ZN2nn3hid6detail27EnablePairedPalmaConnectionEv = __sdk_start + 0x497850;
_ZN2nn3hid6detail28DisablePairedPalmaConnectionEv = __sdk_start + 0x4978b0;
_ZN2nn3hid6detail24EnableAnyPalmaConnectionEv = __sdk_start + 0x497910;
_ZN2nn3hid6detail25DisableAnyPalmaConnectionEv = __sdk_start + 0x497970;
_ZN2nn3hid6detail9PairPalmaERKNS0_21PalmaConnectionHandleE = __sdk_start + 0x4979d0;
_ZN2nn3hid6detail17SetPalmaBoostModeEb = __sdk_start + 0x497a30;
_ZN2nn3hid6detail20EnablePalmaBoostModeEb = __sdk_start + 0x497a90;
_ZN2nn3hid6detail25CancelWritePalmaWaveEntryERKNS0_21PalmaConnectionHandleE = __sdk_start + 0x497af0;
_ZN2nn3hid6detail24GetPalmaBluetoothAddressEPNS_9bluetooth7AddressERKNS0_21PalmaConnectionHandleE = __sdk_start + 0x497b50;
_ZN2nn3hid6detail28SetDisallowedPalmaConnectionEPKNS_9bluetooth7AddressEi = __sdk_start + 0x497bc0;
_ZN2nn3hid6detail20SharedMemoryAccessorC2Ev = __sdk_start + 0x497c64;
_ZN2nn3hid6detail20SharedMemoryAccessorD1Ev = __sdk_start + 0x497c9c;
_ZN2nn3hid6detail20SharedMemoryAccessorD0Ev = __sdk_start + 0x497ca0;
_ZN2nn3hid6detail20SharedMemoryAccessor23SetAppletResourceUserIdENS_6applet20AppletResourceUserIdE = __sdk_start + 0x497ca4;
_ZN2nn3hid6detail20SharedMemoryAccessor8ActivateEv = __sdk_start + 0x497d74;
_ZN2nn3hid6detail20SharedMemoryAccessor10DeactivateEv = __sdk_start + 0x498104;
_ZN2nn3hid6detail20SharedMemoryAccessor33SetResultActivationUpperLimitOverENS_6ResultE = __sdk_start + 0x498288;
_ZN2nn3hid6detail20SharedMemoryAccessor35SetResultDeactivationLowerLimitOverENS_6ResultE = __sdk_start + 0x498290;
_ZN2nn3hid6detail21GetSixAxisSensorStateEPNS0_18SixAxisSensorStateERKNS0_19SixAxisSensorHandleE = __sdk_start + 0x4982a0;
_ZN2nn3hid6detail22GetSixAxisSensorStatesEPiPNS0_18SixAxisSensorStateEiRKNS0_19SixAxisSensorHandleE = __sdk_start + 0x498300;
_ZN2nn3hid6detail18StartSixAxisSensorERKNS0_19SixAxisSensorHandleE = __sdk_start + 0x498500;
_ZN2nn3hid6detail17StopSixAxisSensorERKNS0_19SixAxisSensorHandleE = __sdk_start + 0x498580;
_ZN2nn3hid6detail28IsSixAxisSensorFusionEnabledEPbRKNS0_19SixAxisSensorHandleE = __sdk_start + 0x498600;
_ZN2nn3hid6detail25EnableSixAxisSensorFusionERKNS0_19SixAxisSensorHandleEb = __sdk_start + 0x4986b0;
_ZN2nn3hid6detail32SetSixAxisSensorFusionParametersERKNS0_19SixAxisSensorHandleEff = __sdk_start + 0x498740;
_ZN2nn3hid6detail32GetSixAxisSensorFusionParametersEPfS2_RKNS0_19SixAxisSensorHandleE = __sdk_start + 0x498800;
_ZN2nn3hid6detail34ResetSixAxisSensorFusionParametersERKNS0_19SixAxisSensorHandleE = __sdk_start + 0x4988d0;
_ZN2nn3hid6detail30EnableSixAxisSensorPassthroughERKNS0_19SixAxisSensorHandleEb = __sdk_start + 0x498950;
_ZN2nn3hid6detail33IsSixAxisSensorPassthroughEnabledEPbRKNS0_19SixAxisSensorHandleE = __sdk_start + 0x4989e0;
_ZN2nn3hid6detail26SetAccelerometerParametersENS0_19SixAxisSensorHandleEff = __sdk_start + 0x498a90;
_ZN2nn3hid6detail26GetAccelerometerParametersEPfS2_NS0_19SixAxisSensorHandleE = __sdk_start + 0x498b60;
_ZN2nn3hid6detail28ResetAccelerometerParametersENS0_19SixAxisSensorHandleE = __sdk_start + 0x498c30;
_ZN2nn3hid6detail24SetAccelerometerPlayModeENS0_19SixAxisSensorHandleENS0_5debug21AccelerometerPlayModeE = __sdk_start + 0x498cc0;
_ZN2nn3hid6detail24GetAccelerometerPlayModeEPNS0_5debug21AccelerometerPlayModeENS0_19SixAxisSensorHandleE = __sdk_start + 0x498d50;
_ZN2nn3hid6detail26ResetAccelerometerPlayModeENS0_19SixAxisSensorHandleE = __sdk_start + 0x498e00;
_ZN2nn3hid6detail25SetGyroscopeZeroDriftModeENS0_19SixAxisSensorHandleENS0_22GyroscopeZeroDriftModeE = __sdk_start + 0x498e90;
_ZN2nn3hid6detail25GetGyroscopeZeroDriftModeEPNS0_22GyroscopeZeroDriftModeENS0_19SixAxisSensorHandleE = __sdk_start + 0x498f20;
_ZN2nn3hid6detail27ResetGyroscopeZeroDriftModeENS0_19SixAxisSensorHandleE = __sdk_start + 0x498fd0;
_ZN2nn3hid6detail21IsSixAxisSensorAtRestEPbRKNS0_19SixAxisSensorHandleE = __sdk_start + 0x499060;
_ZN2nn3hid6detail41IsFirmwareUpdateAvailableForSixAxisSensorEPbRKNS0_19SixAxisSensorHandleE = __sdk_start + 0x499110;
_ZN2nn3hid6detail38StoreSixAxisSensorCalibrationParameterERKNS0_19SixAxisSensorHandleERKNS0_33SixAxisSensorCalibrationParameterE = __sdk_start + 0x4991a0;
_ZN2nn3hid6detail37LoadSixAxisSensorCalibrationParameterEPNS0_33SixAxisSensorCalibrationParameterERKNS0_19SixAxisSensorHandleE = __sdk_start + 0x499220;
_ZN2nn3hid6detail29GetSixAxisSensorIcInformationEPNS0_26SixAxisSensorIcInformationERKNS0_19SixAxisSensorHandleE = __sdk_start + 0x4992a0;
_ZN2nn3hid6detail34IsSixAxisSensorDeviceNewlyAssignedEPbRKNS0_19SixAxisSensorHandleE = __sdk_start + 0x499320;
_ZN2nn3hid6detail39ResetIsSixAxisSensorDeviceNewlyAssignedERKNS0_19SixAxisSensorHandleE = __sdk_start + 0x4993b0;
_ZN2nn3hid6detail21InitializeTouchScreenEv = __sdk_start + 0x499420;
_ZN2nn3hid6detail19FinalizeTouchScreenEv = __sdk_start + 0x4994d0;
_ZN2nn3hid6detail19GetTouchScreenStateILm1EEENS_6ResultEPNS0_16TouchScreenStateIXT_EEE = __sdk_start + 0x499560;
_ZN2nn3hid6detail19GetTouchScreenStateILm2EEENS_6ResultEPNS0_16TouchScreenStateIXT_EEE = __sdk_start + 0x499710;
_ZN2nn3hid6detail19GetTouchScreenStateILm3EEENS_6ResultEPNS0_16TouchScreenStateIXT_EEE = __sdk_start + 0x4998e0;
_ZN2nn3hid6detail19GetTouchScreenStateILm4EEENS_6ResultEPNS0_16TouchScreenStateIXT_EEE = __sdk_start + 0x499ad0;
_ZN2nn3hid6detail19GetTouchScreenStateILm5EEENS_6ResultEPNS0_16TouchScreenStateIXT_EEE = __sdk_start + 0x499ce0;
_ZN2nn3hid6detail19GetTouchScreenStateILm6EEENS_6ResultEPNS0_16TouchScreenStateIXT_EEE = __sdk_start + 0x499f00;
_ZN2nn3hid6detail19GetTouchScreenStateILm7EEENS_6ResultEPNS0_16TouchScreenStateIXT_EEE = __sdk_start + 0x499fe0;
_ZN2nn3hid6detail19GetTouchScreenStateILm8EEENS_6ResultEPNS0_16TouchScreenStateIXT_EEE = __sdk_start + 0x49a0c0;
_ZN2nn3hid6detail19GetTouchScreenStateILm9EEENS_6ResultEPNS0_16TouchScreenStateIXT_EEE = __sdk_start + 0x49a1a0;
_ZN2nn3hid6detail19GetTouchScreenStateILm10EEENS_6ResultEPNS0_16TouchScreenStateIXT_EEE = __sdk_start + 0x49a280;
_ZN2nn3hid6detail19GetTouchScreenStateILm11EEENS_6ResultEPNS0_16TouchScreenStateIXT_EEE = __sdk_start + 0x49a360;
_ZN2nn3hid6detail19GetTouchScreenStateILm12EEENS_6ResultEPNS0_16TouchScreenStateIXT_EEE = __sdk_start + 0x49a440;
_ZN2nn3hid6detail19GetTouchScreenStateILm13EEENS_6ResultEPNS0_16TouchScreenStateIXT_EEE = __sdk_start + 0x49a520;
_ZN2nn3hid6detail19GetTouchScreenStateILm14EEENS_6ResultEPNS0_16TouchScreenStateIXT_EEE = __sdk_start + 0x49a600;
_ZN2nn3hid6detail19GetTouchScreenStateILm15EEENS_6ResultEPNS0_16TouchScreenStateIXT_EEE = __sdk_start + 0x49a6e0;
_ZN2nn3hid6detail19GetTouchScreenStateILm16EEENS_6ResultEPNS0_16TouchScreenStateIXT_EEE = __sdk_start + 0x49a7c0;
_ZN2nn3hid6detail20GetTouchScreenStatesILm1EEENS_6ResultEPiPNS0_16TouchScreenStateIXT_EEEi = __sdk_start + 0x49a8a0;
_ZN2nn3hid6detail20GetTouchScreenStatesILm2EEENS_6ResultEPiPNS0_16TouchScreenStateIXT_EEEi = __sdk_start + 0x49aa70;
_ZN2nn3hid6detail20GetTouchScreenStatesILm3EEENS_6ResultEPiPNS0_16TouchScreenStateIXT_EEEi = __sdk_start + 0x49ac60;
_ZN2nn3hid6detail20GetTouchScreenStatesILm4EEENS_6ResultEPiPNS0_16TouchScreenStateIXT_EEEi = __sdk_start + 0x49ae70;
_ZN2nn3hid6detail20GetTouchScreenStatesILm5EEENS_6ResultEPiPNS0_16TouchScreenStateIXT_EEEi = __sdk_start + 0x49b090;
_ZN2nn3hid6detail20GetTouchScreenStatesILm6EEENS_6ResultEPiPNS0_16TouchScreenStateIXT_EEEi = __sdk_start + 0x49b2d0;
_ZN2nn3hid6detail20GetTouchScreenStatesILm7EEENS_6ResultEPiPNS0_16TouchScreenStateIXT_EEEi = __sdk_start + 0x49b3d0;
_ZN2nn3hid6detail20GetTouchScreenStatesILm8EEENS_6ResultEPiPNS0_16TouchScreenStateIXT_EEEi = __sdk_start + 0x49b4d0;
_ZN2nn3hid6detail20GetTouchScreenStatesILm9EEENS_6ResultEPiPNS0_16TouchScreenStateIXT_EEEi = __sdk_start + 0x49b5d0;
_ZN2nn3hid6detail20GetTouchScreenStatesILm10EEENS_6ResultEPiPNS0_16TouchScreenStateIXT_EEEi = __sdk_start + 0x49b6d0;
_ZN2nn3hid6detail20GetTouchScreenStatesILm11EEENS_6ResultEPiPNS0_16TouchScreenStateIXT_EEEi = __sdk_start + 0x49b7d0;
_ZN2nn3hid6detail20GetTouchScreenStatesILm12EEENS_6ResultEPiPNS0_16TouchScreenStateIXT_EEEi = __sdk_start + 0x49b8d0;
_ZN2nn3hid6detail20GetTouchScreenStatesILm13EEENS_6ResultEPiPNS0_16TouchScreenStateIXT_EEEi = __sdk_start + 0x49b9d0;
_ZN2nn3hid6detail20GetTouchScreenStatesILm14EEENS_6ResultEPiPNS0_16TouchScreenStateIXT_EEEi = __sdk_start + 0x49bad0;
_ZN2nn3hid6detail20GetTouchScreenStatesILm15EEENS_6ResultEPiPNS0_16TouchScreenStateIXT_EEEi = __sdk_start + 0x49bbd0;
_ZN2nn3hid6detail20GetTouchScreenStatesILm16EEENS_6ResultEPiPNS0_16TouchScreenStateIXT_EEEi = __sdk_start + 0x49bcd0;
_ZN2nn3hid6detail27SetTouchScreenConfigurationERKNS0_29TouchScreenConfigurationForNxE = __sdk_start + 0x49bdd0;
_ZN2nn3hid6detail43IsUsbFullKeyControllerEnabledForApplicationEPb = __sdk_start + 0x49d510;
_ZN2nn3hid6detail40EnableUsbFullKeyControllerForApplicationEb = __sdk_start + 0x49d570;
_ZN2nn3hid6detail45IsUsbFullKeyControllerConnectedForApplicationEPbRKj = __sdk_start + 0x49d5d0;
_ZN2nn3hid6detail15PermitVibrationEb = __sdk_start + 0x49d640;
_ZN2nn3hid6detail20IsVibrationPermittedEPb = __sdk_start + 0x49d780;
_ZN2nn3hid6detail27BeginPermitVibrationSessionEv = __sdk_start + 0x49d7f0;
_ZN2nn3hid6detail25EndPermitVibrationSessionEv = __sdk_start + 0x49d860;
_ZN2nn3hid6detail25InitializeVibrationDeviceERKNS0_21VibrationDeviceHandleE = __sdk_start + 0x49d8c0;
_ZN2nn3hid6detail22GetVibrationDeviceInfoEPNS0_19VibrationDeviceInfoERKNS0_21VibrationDeviceHandleE = __sdk_start + 0x49da20;
_ZN2nn3hid6detail18SendVibrationValueERKNS0_21VibrationDeviceHandleERKNS0_14VibrationValueE = __sdk_start + 0x49dab0;
_ZN2nn3hid6detail19SendVibrationValuesEPKNS0_21VibrationDeviceHandleEPKNS0_14VibrationValueEi = __sdk_start + 0x49db30;
_ZN2nn3hid6detail23GetActualVibrationValueEPNS0_14VibrationValueERKNS0_21VibrationDeviceHandleE = __sdk_start + 0x49dbd0;
_ZN2nn3hid6detail25SendVibrationGcErmCommandERKNS0_21VibrationDeviceHandleERKNS0_21VibrationGcErmCommandE = __sdk_start + 0x49dc50;
_ZN2nn3hid6detail30GetActualVibrationGcErmCommandEPNS0_21VibrationGcErmCommandERKNS0_21VibrationDeviceHandleE = __sdk_start + 0x49dcd0;
_ZN2nn3hid6detail24IsVibrationDeviceMountedEPbRKNS0_21VibrationDeviceHandleE = __sdk_start + 0x49dd50;
_ZN2nn3hid6detail18ParseVibrationFileEPNS0_17VibrationFileInfoEPNS1_30VibrationFileParserContextImplEPKvm = __sdk_start + 0x49ddd0;
_ZN2nn3hid6detail22RetrieveVibrationValueEPNS0_14VibrationValueEiPNS1_30VibrationFileParserContextImplE = __sdk_start + 0x49df00;
_ZN2nn3hid6detail21GenerateVibrationFileEPmPhmRKNS0_23VibrationValueArrayInfoEPKNS0_14VibrationValueE = __sdk_start + 0x49df90;
_ZN2nn3hid6detail26CalculateVibrationFileSizeERKNS0_23VibrationValueArrayInfoE = __sdk_start + 0x49e180;
_ZN2nn3hid6detail21EnqueueVibrationValueERKNS0_21VibrationDeviceHandleERKNS0_14VibrationValueE = __sdk_start + 0x49e1b0;
_ZN2nn3hid6detail28FlushEnqueuedVibrationValuesEv = __sdk_start + 0x49e240;
_ZN2nn3hid30InitializeConsoleSixAxisSensorEv = __sdk_start + 0x49e2a0;
_ZN2nn3hid22GetSixAxisSensorHandleEPNS0_26ConsoleSixAxisSensorHandleE = __sdk_start + 0x49e2d0;
_ZN2nn3hid18StartSixAxisSensorERKNS0_26ConsoleSixAxisSensorHandleE = __sdk_start + 0x49e300;
_ZN2nn3hid17StopSixAxisSensorERKNS0_26ConsoleSixAxisSensorHandleE = __sdk_start + 0x49e330;
_ZN2nn3hid28InitializeSevenSixAxisSensorEPvm = __sdk_start + 0x49e360;
_ZN2nn3hid26FinalizeSevenSixAxisSensorEv = __sdk_start + 0x49e390;
_ZN2nn3hid23StartSevenSixAxisSensorEv = __sdk_start + 0x49e3c0;
_ZN2nn3hid22StopSevenSixAxisSensorEv = __sdk_start + 0x49e3d0;
_ZN2nn3hid27GetSevenSixAxisSensorStatesEPNS0_23SevenSixAxisSensorStateEi = __sdk_start + 0x49e400;
_ZN2nn3hid26IsSevenSixAxisSensorAtRestEv = __sdk_start + 0x49e440;
_ZN2nn3hid32ResetSevenSixAxisSensorTimestampEv = __sdk_start + 0x49e480;
_ZN2nn3hid35SetSevenSixAxisSensorFusionStrengthEf = __sdk_start + 0x49e4b0;
_ZN2nn3hid35GetSevenSixAxisSensorFusionStrengthEPf = __sdk_start + 0x49e4c0;
_ZN2nn3hid5debug20GetSensorFusionErrorEv = __sdk_start + 0x49e4d0;
_ZN2nn3hid5debug11GetGyroBiasEv = __sdk_start + 0x49e510;
_ZN2nn3hid18InitializeDebugPadEv = __sdk_start + 0x49e550;
_ZN2nn3hid16GetDebugPadStateEPNS0_13DebugPadStateE = __sdk_start + 0x49e580;
_ZN2nn3hid17GetDebugPadStatesEPNS0_13DebugPadStateEi = __sdk_start + 0x49e5b0;
_ZN2nn3hid19InitializeDigitizerEv = __sdk_start + 0x49e5f0;
_ZN2nn3hid17GetDigitizerStateEPNS0_14DigitizerStateE = __sdk_start + 0x49e620;
_ZN2nn3hid18GetDigitizerStatesEPNS0_14DigitizerStateEi = __sdk_start + 0x49e650;
_ZN2nn3hid17InitializeGestureEv = __sdk_start + 0x49e690;
_ZN2nn3hid16GetGestureStatesEPNS0_12GestureStateEi = __sdk_start + 0x49e6c0;
_ZN2nn3hid18InitializeKeyboardEv = __sdk_start + 0x49e700;
_ZN2nn3hid16GetKeyboardStateEPNS0_13KeyboardStateE = __sdk_start + 0x49e730;
_ZN2nn3hid17GetKeyboardStatesEPNS0_13KeyboardStateEi = __sdk_start + 0x49e760;
_ZN2nn3hid24SendKeyboardLockKeyEventENS_4util10BitFlagSetILi32ENS0_20KeyboardLockKeyEventEEE = __sdk_start + 0x49e7a0;
_ZN2nn3hid15InitializeMouseEv = __sdk_start + 0x49e7d0;
_ZN2nn3hid13GetMouseStateEPNS0_10MouseStateE = __sdk_start + 0x49e800;
_ZN2nn3hid14GetMouseStatesEPNS0_10MouseStateEi = __sdk_start + 0x49e830;
_ZN2nn3hid37IsFirmwareUpdateNeededForNotificationEv = __sdk_start + 0x49e870;
_ZN2nn3hid14InitializeNpadEv = __sdk_start + 0x49e8b0;
_ZN2nn3hid24SetSupportedNpadStyleSetENS_4util10BitFlagSetILi32ENS0_12NpadStyleTagEEE = __sdk_start + 0x49e8e0;
_ZN2nn3hid24GetSupportedNpadStyleSetEv = __sdk_start + 0x49e920;
_ZN2nn3hid22SetSupportedNpadIdTypeEPKjm = __sdk_start + 0x49e960;
_ZN2nn3hid27BindNpadStyleSetUpdateEventERKjPNS_2os15SystemEventTypeENS3_14EventClearModeE = __sdk_start + 0x49e990;
_ZN2nn3hid15GetNpadStyleSetERKj = __sdk_start + 0x49e9f0;
_ZN2nn3hid14DisconnectNpadERKj = __sdk_start + 0x49ea60;
_ZN2nn3hid19GetPlayerLedPatternERKj = __sdk_start + 0x49eac0;
_ZN2nn3hid44IsUnintendedHomeButtonInputProtectionEnabledERKj = __sdk_start + 0x49eb30;
_ZN2nn3hid41EnableUnintendedHomeButtonInputProtectionERKjb = __sdk_start + 0x49eba0;
_ZN2nn3hid32EnableNpadAnalogStickCenterClampEv = __sdk_start + 0x49ec00;
_ZN2nn3hid33DisableNpadAnalogStickCenterClampEv = __sdk_start + 0x49ec30;
_ZN2nn3hid30SetNpadCaptureButtonAssignmentENS_4util10BitFlagSetILi32ENS0_12NpadStyleTagEEENS2_ILi64ENS0_10NpadButtonEEE = __sdk_start + 0x49ec60;
_ZN2nn3hid32ClearNpadCaptureButtonAssignmentEv = __sdk_start + 0x49ec90;
_ZN2nn3hid22GetNpadControllerColorEPNS0_19NpadControllerColorERKj = __sdk_start + 0x49ecc0;
_ZN2nn3hid22GetNpadControllerColorEPNS0_19NpadControllerColorES2_RKj = __sdk_start + 0x49ed40;
_ZN2nn3hid28SetControlPadRestrictionTypeENS_4util10BitFlagSetILi32ENS0_12NpadStyleTagEEENS0_25ControlPadRestrictionTypeE = __sdk_start + 0x49edc0;
_ZN2nn3hid28GetControlPadRestrictionTypeENS_4util10BitFlagSetILi32ENS0_12NpadStyleTagEEE = __sdk_start + 0x49edf0;
_ZN2nn3hid27EnableControlPadRestrictionERKNS_4util10BitFlagSetILi32ENS0_12NpadStyleTagEEEb = __sdk_start + 0x49ee30;
_ZN2nn3hid12GetNpadStateEPNS0_16NpadFullKeyStateERKj = __sdk_start + 0x49ee60;
_ZN2nn3hid13GetNpadStatesEPNS0_16NpadFullKeyStateEiRKj = __sdk_start + 0x49eed0;
_ZN2nn3hid12GetNpadStateEPNS0_17NpadHandheldStateERKj = __sdk_start + 0x49ef40;
_ZN2nn3hid13GetNpadStatesEPNS0_17NpadHandheldStateEiRKj = __sdk_start + 0x49efb0;
_ZN2nn3hid12GetNpadStateEPNS0_21NpadHandheldLarkStateERKj = __sdk_start + 0x49f020;
_ZN2nn3hid13GetNpadStatesEPNS0_21NpadHandheldLarkStateEiRKj = __sdk_start + 0x49f090;
_ZN2nn3hid20GetNpadJoyAssignmentERKj = __sdk_start + 0x49f100;
_ZN2nn3hid30SetNpadJoyAssignmentModeSingleERKj = __sdk_start + 0x49f170;
_ZN2nn3hid30SetNpadJoyAssignmentModeSingleERKjNS0_17NpadJoyDeviceTypeE = __sdk_start + 0x49f1d0;
_ZN2nn3hid30SetNpadJoyAssignmentModeSingleEPjRKjNS0_17NpadJoyDeviceTypeE = __sdk_start + 0x49f230;
_ZN2nn3hid28SetNpadJoyAssignmentModeDualERKj = __sdk_start + 0x49f2a0;
_ZN2nn3hid23MergeSingleJoyAsDualJoyERKjS2_ = __sdk_start + 0x49f300;
_ZN2nn3hid18SwapNpadAssignmentERKjS2_ = __sdk_start + 0x49f3b0;
_ZN2nn3hid18SetNpadJoyHoldTypeENS0_15NpadJoyHoldTypeE = __sdk_start + 0x49f440;
_ZN2nn3hid18GetNpadJoyHoldTypeEv = __sdk_start + 0x49f470;
_ZN2nn3hid21StartLrAssignmentModeEv = __sdk_start + 0x49f4b0;
_ZN2nn3hid20StopLrAssignmentModeEv = __sdk_start + 0x49f4e0;
_ZN2nn3hid29SetNpadHandheldActivationModeENS0_26NpadHandheldActivationModeE = __sdk_start + 0x49f510;
_ZN2nn3hid29GetNpadHandheldActivationModeEv = __sdk_start + 0x49f540;
_ZN2nn3hid24SetNpadCommunicationModeENS0_21NpadCommunicationModeE = __sdk_start + 0x49f580;
_ZN2nn3hid24GetNpadCommunicationModeEv = __sdk_start + 0x49f5b0;
_ZN2nn3hid28GetNpadOfHighestBatteryLevelEPjPKji = __sdk_start + 0x49f5f0;
_ZN2nn3hid12GetNpadStateEPNS0_16NpadJoyDualStateERKj = __sdk_start + 0x49f600;
_ZN2nn3hid13GetNpadStatesEPNS0_16NpadJoyDualStateEiRKj = __sdk_start + 0x49f670;
_ZN2nn3hid12GetNpadStateEPNS0_16NpadJoyLeftStateERKj = __sdk_start + 0x49f6e0;
_ZN2nn3hid13GetNpadStatesEPNS0_16NpadJoyLeftStateEiRKj = __sdk_start + 0x49f750;
_ZN2nn3hid12GetNpadStateEPNS0_17NpadJoyRightStateERKj = __sdk_start + 0x49f7c0;
_ZN2nn3hid13GetNpadStatesEPNS0_17NpadJoyRightStateEiRKj = __sdk_start + 0x49f830;
_ZN2nn3hid12GetNpadStateEPNS0_11NpadGcStateERKj = __sdk_start + 0x49f8a0;
_ZN2nn3hid13GetNpadStatesEPNS0_11NpadGcStateEiRKj = __sdk_start + 0x49f910;
_ZN2nn3hid12GetNpadStateEPNS0_14NpadLagerStateERKj = __sdk_start + 0x49f980;
_ZN2nn3hid13GetNpadStatesEPNS0_14NpadLagerStateEiRKj = __sdk_start + 0x49f9f0;
_ZN2nn3hid16GetNpadLagerTypeERKj = __sdk_start + 0x49fa60;
_ZN2nn3hid12GetNpadStateEPNS0_13NpadLarkStateERKj = __sdk_start + 0x49fad0;
_ZN2nn3hid13GetNpadStatesEPNS0_13NpadLarkStateEiRKj = __sdk_start + 0x49fb40;
_ZN2nn3hid12GetNpadStateEPNS0_14NpadLuciaStateERKj = __sdk_start + 0x49fbb0;
_ZN2nn3hid13GetNpadStatesEPNS0_14NpadLuciaStateEiRKj = __sdk_start + 0x49fc20;
_ZN2nn3hid12GetNpadStateEPNS0_14NpadPalmaStateERKj = __sdk_start + 0x49fc90;
_ZN2nn3hid13GetNpadStatesEPNS0_14NpadPalmaStateEiRKj = __sdk_start + 0x49fd00;
_ZN2nn3hid24GetPalmaConnectionHandleEPNS0_21PalmaConnectionHandleERKj = __sdk_start + 0x49fd70;
_ZN2nn3hid15InitializePalmaERKNS0_21PalmaConnectionHandleE = __sdk_start + 0x49fde0;
_ZN2nn3hid31BindPalmaOperationCompleteEventERKNS0_21PalmaConnectionHandleEPNS_2os15SystemEventTypeENS4_14EventClearModeE = __sdk_start + 0x49fdf0;
_ZN2nn3hid21GetPalmaOperationInfoEPNS0_18PalmaOperationInfoERKNS0_21PalmaConnectionHandleE = __sdk_start + 0x49fe40;
_ZN2nn3hid17PlayPalmaActivityERKNS0_21PalmaConnectionHandleERKt = __sdk_start + 0x49fe80;
_ZN2nn3hid18SetPalmaFrModeTypeERKNS0_21PalmaConnectionHandleERKNS0_15PalmaFrModeTypeE = __sdk_start + 0x49fe90;
_ZN2nn3hid13ReadPalmaStepERKNS0_21PalmaConnectionHandleE = __sdk_start + 0x49fea0;
_ZN2nn3hid15EnablePalmaStepERKNS0_21PalmaConnectionHandleEb = __sdk_start + 0x49feb0;
_ZN2nn3hid14ResetPalmaStepERKNS0_21PalmaConnectionHandleE = __sdk_start + 0x49fec0;
_ZN2nn3hid27ReadPalmaApplicationSectionERKNS0_21PalmaConnectionHandleEim = __sdk_start + 0x49fed0;
_ZN2nn3hid28WritePalmaApplicationSectionERKNS0_21PalmaConnectionHandleEimRKNS0_35PalmaApplicationSectionAccessBufferE = __sdk_start + 0x49fef0;
_ZN2nn3hid19ReadPalmaUniqueCodeERKNS0_21PalmaConnectionHandleE = __sdk_start + 0x49ff00;
_ZN2nn3hid25SetPalmaUniqueCodeInvalidERKNS0_21PalmaConnectionHandleE = __sdk_start + 0x49ff10;
_ZN2nn3hid23WritePalmaActivityEntryERKNS0_21PalmaConnectionHandleERKtPKNS0_18PalmaActivityEntryE = __sdk_start + 0x49ff20;
_ZN2nn3hid28WritePalmaRgbLedPatternEntryERKNS0_21PalmaConnectionHandleERKtPKvm = __sdk_start + 0x49ff70;
_ZN2nn3hid19WritePalmaWaveEntryERKNS0_21PalmaConnectionHandleERKNS0_12PalmaWaveSetERKtPKvmm = __sdk_start + 0x49ffc0;
_ZN2nn3hid37SetPalmaDataBaseIdentificationVersionERKNS0_21PalmaConnectionHandleEi = __sdk_start + 0x4a0030;
_ZN2nn3hid37GetPalmaDataBaseIdentificationVersionERKNS0_21PalmaConnectionHandleE = __sdk_start + 0x4a0040;
_ZN2nn3hid19SuspendPalmaFeatureERKNS0_21PalmaConnectionHandleERKNS_4util10BitFlagSetILi32ENS0_12PalmaFeatureEEE = __sdk_start + 0x4a0050;
_ZN2nn3hid16ReadPalmaPlayLogERKNS0_21PalmaConnectionHandleERKt = __sdk_start + 0x4a0060;
_ZN2nn3hid17ResetPalmaPlayLogERKNS0_21PalmaConnectionHandleERKt = __sdk_start + 0x4a0070;
_ZN2nn3hid27EnablePairedPalmaConnectionEv = __sdk_start + 0x4a0080;
_ZN2nn3hid28DisablePairedPalmaConnectionEv = __sdk_start + 0x4a00b0;
_ZN2nn3hid24EnableAnyPalmaConnectionEv = __sdk_start + 0x4a00e0;
_ZN2nn3hid25DisableAnyPalmaConnectionEv = __sdk_start + 0x4a0110;
_ZN2nn3hid9PairPalmaERKNS0_21PalmaConnectionHandleE = __sdk_start + 0x4a0140;
_ZN2nn3hid17SetPalmaBoostModeEb = __sdk_start + 0x4a0170;
_ZN2nn3hid25CancelWritePalmaWaveEntryERKNS0_21PalmaConnectionHandleE = __sdk_start + 0x4a01a0;
_ZN2nn3hid24GetPalmaBluetoothAddressEPNS_9bluetooth7AddressERKNS0_21PalmaConnectionHandleE = __sdk_start + 0x4a01b0;
_ZN2nn3hid28SetDisallowedPalmaConnectionEPKNS_9bluetooth7AddressEi = __sdk_start + 0x4a01f0;
_ZN2nn3hid23GetSixAxisSensorHandlesEPNS0_19SixAxisSensorHandleEiRKjNS_4util10BitFlagSetILi32ENS0_12NpadStyleTagEEE = __sdk_start + 0x4a0360;
_ZN2nn3hid18StartSixAxisSensorERKNS0_19SixAxisSensorHandleE = __sdk_start + 0x4a03b0;
_ZN2nn3hid17StopSixAxisSensorERKNS0_19SixAxisSensorHandleE = __sdk_start + 0x4a03e0;
_ZN2nn3hid28IsSixAxisSensorFusionEnabledERKNS0_19SixAxisSensorHandleE = __sdk_start + 0x4a0410;
_ZN2nn3hid25EnableSixAxisSensorFusionERKNS0_19SixAxisSensorHandleEb = __sdk_start + 0x4a0450;
_ZN2nn3hid32SetSixAxisSensorFusionParametersERKNS0_19SixAxisSensorHandleEff = __sdk_start + 0x4a0480;
_ZN2nn3hid32GetSixAxisSensorFusionParametersEPfS1_RKNS0_19SixAxisSensorHandleE = __sdk_start + 0x4a04b0;
_ZN2nn3hid34ResetSixAxisSensorFusionParametersERKNS0_19SixAxisSensorHandleE = __sdk_start + 0x4a04e0;
_ZN2nn3hid30EnableSixAxisSensorPassthroughERKNS0_19SixAxisSensorHandleEb = __sdk_start + 0x4a0510;
_ZN2nn3hid33IsSixAxisSensorPassthroughEnabledERKNS0_19SixAxisSensorHandleE = __sdk_start + 0x4a0540;
_ZN2nn3hid25SetGyroscopeZeroDriftModeERKNS0_19SixAxisSensorHandleERKNS0_22GyroscopeZeroDriftModeE = __sdk_start + 0x4a0580;
_ZN2nn3hid25GetGyroscopeZeroDriftModeERKNS0_19SixAxisSensorHandleE = __sdk_start + 0x4a05c0;
_ZN2nn3hid21GetSixAxisSensorStateEPNS0_18SixAxisSensorStateERKNS0_19SixAxisSensorHandleE = __sdk_start + 0x4a0600;
_ZN2nn3hid22GetSixAxisSensorStatesEPNS0_18SixAxisSensorStateEiRKNS0_19SixAxisSensorHandleE = __sdk_start + 0x4a0630;
_ZN2nn3hid21IsSixAxisSensorAtRestERKNS0_19SixAxisSensorHandleE = __sdk_start + 0x4a0670;
_ZN2nn3hid41IsFirmwareUpdateAvailableForSixAxisSensorERKNS0_19SixAxisSensorHandleE = __sdk_start + 0x4a06b0;
_ZN2nn3hid38StoreSixAxisSensorCalibrationParameterERKNS0_19SixAxisSensorHandleERKNS0_33SixAxisSensorCalibrationParameterE = __sdk_start + 0x4a06f0;
_ZN2nn3hid37LoadSixAxisSensorCalibrationParameterEPNS0_33SixAxisSensorCalibrationParameterERKNS0_19SixAxisSensorHandleE = __sdk_start + 0x4a0700;
_ZN2nn3hid29GetSixAxisSensorIcInformationEPNS0_26SixAxisSensorIcInformationERKNS0_19SixAxisSensorHandleE = __sdk_start + 0x4a0710;
_ZN2nn3hid34IsSixAxisSensorDeviceNewlyAssignedERKNS0_19SixAxisSensorHandleE = __sdk_start + 0x4a0720;
_ZN2nn3hid39ResetIsSixAxisSensorDeviceNewlyAssignedERKNS0_19SixAxisSensorHandleE = __sdk_start + 0x4a0760;
_ZN2nn3hid21InitializeTouchScreenEv = __sdk_start + 0x4a0790;
_ZN2nn3hid19GetTouchScreenStateILm1EEEvPNS0_16TouchScreenStateIXT_EEE = __sdk_start + 0x4a07c0;
_ZN2nn3hid19GetTouchScreenStateILm2EEEvPNS0_16TouchScreenStateIXT_EEE = __sdk_start + 0x4a07f0;
_ZN2nn3hid19GetTouchScreenStateILm3EEEvPNS0_16TouchScreenStateIXT_EEE = __sdk_start + 0x4a0820;
_ZN2nn3hid19GetTouchScreenStateILm4EEEvPNS0_16TouchScreenStateIXT_EEE = __sdk_start + 0x4a0850;
_ZN2nn3hid19GetTouchScreenStateILm5EEEvPNS0_16TouchScreenStateIXT_EEE = __sdk_start + 0x4a0880;
_ZN2nn3hid19GetTouchScreenStateILm6EEEvPNS0_16TouchScreenStateIXT_EEE = __sdk_start + 0x4a08b0;
_ZN2nn3hid19GetTouchScreenStateILm7EEEvPNS0_16TouchScreenStateIXT_EEE = __sdk_start + 0x4a08e0;
_ZN2nn3hid19GetTouchScreenStateILm8EEEvPNS0_16TouchScreenStateIXT_EEE = __sdk_start + 0x4a0910;
_ZN2nn3hid19GetTouchScreenStateILm9EEEvPNS0_16TouchScreenStateIXT_EEE = __sdk_start + 0x4a0940;
_ZN2nn3hid19GetTouchScreenStateILm10EEEvPNS0_16TouchScreenStateIXT_EEE = __sdk_start + 0x4a0970;
_ZN2nn3hid19GetTouchScreenStateILm11EEEvPNS0_16TouchScreenStateIXT_EEE = __sdk_start + 0x4a09a0;
_ZN2nn3hid19GetTouchScreenStateILm12EEEvPNS0_16TouchScreenStateIXT_EEE = __sdk_start + 0x4a09d0;
_ZN2nn3hid19GetTouchScreenStateILm13EEEvPNS0_16TouchScreenStateIXT_EEE = __sdk_start + 0x4a0a00;
_ZN2nn3hid19GetTouchScreenStateILm14EEEvPNS0_16TouchScreenStateIXT_EEE = __sdk_start + 0x4a0a30;
_ZN2nn3hid19GetTouchScreenStateILm15EEEvPNS0_16TouchScreenStateIXT_EEE = __sdk_start + 0x4a0a60;
_ZN2nn3hid19GetTouchScreenStateILm16EEEvPNS0_16TouchScreenStateIXT_EEE = __sdk_start + 0x4a0a90;
_ZN2nn3hid20GetTouchScreenStatesILm1EEEiPNS0_16TouchScreenStateIXT_EEEi = __sdk_start + 0x4a0ac0;
_ZN2nn3hid20GetTouchScreenStatesILm2EEEiPNS0_16TouchScreenStateIXT_EEEi = __sdk_start + 0x4a0b00;
_ZN2nn3hid20GetTouchScreenStatesILm3EEEiPNS0_16TouchScreenStateIXT_EEEi = __sdk_start + 0x4a0b40;
_ZN2nn3hid20GetTouchScreenStatesILm4EEEiPNS0_16TouchScreenStateIXT_EEEi = __sdk_start + 0x4a0b80;
_ZN2nn3hid20GetTouchScreenStatesILm5EEEiPNS0_16TouchScreenStateIXT_EEEi = __sdk_start + 0x4a0bc0;
_ZN2nn3hid20GetTouchScreenStatesILm6EEEiPNS0_16TouchScreenStateIXT_EEEi = __sdk_start + 0x4a0c00;
_ZN2nn3hid20GetTouchScreenStatesILm7EEEiPNS0_16TouchScreenStateIXT_EEEi = __sdk_start + 0x4a0c40;
_ZN2nn3hid20GetTouchScreenStatesILm8EEEiPNS0_16TouchScreenStateIXT_EEEi = __sdk_start + 0x4a0c80;
_ZN2nn3hid20GetTouchScreenStatesILm9EEEiPNS0_16TouchScreenStateIXT_EEEi = __sdk_start + 0x4a0cc0;
_ZN2nn3hid20GetTouchScreenStatesILm10EEEiPNS0_16TouchScreenStateIXT_EEEi = __sdk_start + 0x4a0d00;
_ZN2nn3hid20GetTouchScreenStatesILm11EEEiPNS0_16TouchScreenStateIXT_EEEi = __sdk_start + 0x4a0d40;
_ZN2nn3hid20GetTouchScreenStatesILm12EEEiPNS0_16TouchScreenStateIXT_EEEi = __sdk_start + 0x4a0d80;
_ZN2nn3hid20GetTouchScreenStatesILm13EEEiPNS0_16TouchScreenStateIXT_EEEi = __sdk_start + 0x4a0dc0;
_ZN2nn3hid20GetTouchScreenStatesILm14EEEiPNS0_16TouchScreenStateIXT_EEEi = __sdk_start + 0x4a0e00;
_ZN2nn3hid20GetTouchScreenStatesILm15EEEiPNS0_16TouchScreenStateIXT_EEEi = __sdk_start + 0x4a0e40;
_ZN2nn3hid20GetTouchScreenStatesILm16EEEiPNS0_16TouchScreenStateIXT_EEEi = __sdk_start + 0x4a0e80;
_ZN2nn3hid32SetTouchScreenConfigurationForNxERKNS0_29TouchScreenConfigurationForNxE = __sdk_start + 0x4a0ec0;
_ZN2nn3hid26EnableUsbFullKeyControllerEb = __sdk_start + 0x4a0ef0;
_ZN2nn3hid29IsUsbFullKeyControllerEnabledEv = __sdk_start + 0x4a0f20;
_ZN2nn3hid31IsUsbFullKeyControllerConnectedERKj = __sdk_start + 0x4a0f60;
_ZN2nn3hid18VibrationConverterC1Ev = __sdk_start + 0x4a0fc4;
_ZN2nn3hid18VibrationConverterC1Ei = __sdk_start + 0x4a1050;
_ZN2nn3hid18VibrationConverterC2Eiffff = __sdk_start + 0x4a1108;
_ZN2nn3hid18VibrationConverterD1Ev = __sdk_start + 0x4a1254;
_ZN2nn3hid18VibrationConverterD0Ev = __sdk_start + 0x4a1258;
_ZN2nn3hid18VibrationConverter12ProcessChunkEPNS0_14VibrationValueEPKsi = __sdk_start + 0x4a125c;
_ZN2nn3hid20IsVibrationPermittedEv = __sdk_start + 0x4a12e0;
_ZN2nn3hid27BeginForcedVibrationSessionEv = __sdk_start + 0x4a1320;
_ZN2nn3hid25EndForcedVibrationSessionEv = __sdk_start + 0x4a1350;
_ZN2nn3hid25GetVibrationDeviceHandlesEPNS0_21VibrationDeviceHandleEiRKjNS_4util10BitFlagSetILi32ENS0_12NpadStyleTagEEE = __sdk_start + 0x4a1380;
_ZN2nn3hid25InitializeVibrationDeviceERKNS0_21VibrationDeviceHandleE = __sdk_start + 0x4a1440;
_ZN2nn3hid22GetVibrationDeviceInfoEPNS0_19VibrationDeviceInfoERKNS0_21VibrationDeviceHandleE = __sdk_start + 0x4a1470;
_ZN2nn3hid18SendVibrationValueERKNS0_21VibrationDeviceHandleERKNS0_14VibrationValueE = __sdk_start + 0x4a14c0;
_ZN2nn3hid23GetActualVibrationValueEPNS0_14VibrationValueERKNS0_21VibrationDeviceHandleE = __sdk_start + 0x4a14f0;
_ZN2nn3hid24IsVibrationDeviceMountedERKNS0_21VibrationDeviceHandleE = __sdk_start + 0x4a1540;
_ZN2nn3hid18ParseVibrationFileEPNS0_17VibrationFileInfoEPNS0_26VibrationFileParserContextEPKvm = __sdk_start + 0x4a1580;
_ZN2nn3hid22RetrieveVibrationValueEPNS0_14VibrationValueEiPNS0_26VibrationFileParserContextE = __sdk_start + 0x4a15f0;
_ZN2nn3hid21GenerateVibrationFileEPmPvmRKNS0_23VibrationValueArrayInfoEPKNS0_14VibrationValueE = __sdk_start + 0x4a1670;
_ZN2nn3hid26CalculateVibrationFileSizeERKNS0_23VibrationValueArrayInfoE = __sdk_start + 0x4a1740;
_ZN2nn3hid25SendVibrationGcErmCommandERKNS0_21VibrationDeviceHandleERKNS0_21VibrationGcErmCommandE = __sdk_start + 0x4a1750;
_ZN2nn3hid30GetActualVibrationGcErmCommandEPNS0_21VibrationGcErmCommandERKNS0_21VibrationDeviceHandleE = __sdk_start + 0x4a1780;
_ZN2nn3hid14VibrationMixer19CompressorParameter5ApplyEPNS0_14VibrationValueE = __sdk_start + 0x4a17d0;
_ZN2nn3hid14VibrationMixerC1Ev = __sdk_start + 0x4a1850;
_ZN2nn3hid14VibrationMixerD2Ev = __sdk_start + 0x4a1890;
_ZN2nn3hid14VibrationMixerD0Ev = __sdk_start + 0x4a1894;
_ZN2nn3hid14VibrationMixer10SetMixModeERKNS0_16VibrationMixModeE = __sdk_start + 0x4a18b8;
_ZN2nn3hid14VibrationMixer13SetCompressorERKNS1_19CompressorParameterE = __sdk_start + 0x4a18fc;
_ZN2nn3hid14VibrationMixer20OnNextSampleRequiredEPNS0_14VibrationValueEPNS_4util13IntrusiveListINS0_23VibrationNodeConnectionENS4_27IntrusiveListBaseNodeTraitsIS6_S6_EEEE = __sdk_start + 0x4a1934;
_ZN2nn3hid13VibrationNodeC2Ev = __sdk_start + 0x4a1bf8;
_ZN2nn3hid13VibrationNodeD1Ev = __sdk_start + 0x4a1cb0;
_ZN2nn3hid13VibrationNodeD0Ev = __sdk_start + 0x4a1db0;
_ZN2nn3hid13VibrationNode14DisconnectFromEPS1_ = __sdk_start + 0x4a1e10;
_ZN2nn3hid23VibrationNodeConnection10DisconnectEv = __sdk_start + 0x4a1f28;
_ZN2nn3hid13VibrationNode15SetModulationToEPKS1_RKNS0_19VibrationModulationE = __sdk_start + 0x4a2038;
_ZN2nn3hid23VibrationNodeConnection13SetModulationERKNS0_19VibrationModulationE = __sdk_start + 0x4a20e0;
_ZN2nn3hid13VibrationNode19SetCurrentVibrationERKNS0_14VibrationValueE = __sdk_start + 0x4a225c;
_ZN2nn3hid13VibrationNode16SyncSampleNumberEv = __sdk_start + 0x4a22a0;
_ZN2nn3hid13VibrationNode6UpdateEv = __sdk_start + 0x4a2378;
_ZN2nn3hid23VibrationNodeConnectionC1Ev = __sdk_start + 0x4a243c;
_ZN2nn3hid23VibrationNodeConnectionC1EPNS0_13VibrationNodeES3_ = __sdk_start + 0x4a2464;
_ZN2nn3hid23VibrationNodeConnection7ConnectEPNS0_13VibrationNodeES3_ = __sdk_start + 0x4a248c;
_ZN2nn3hid23VibrationNodeConnectionD1Ev = __sdk_start + 0x4a2584;
_ZN2nn3hid23VibrationNodeConnectionD0Ev = __sdk_start + 0x4a2598;
_ZN2nn3hid15VibrationPlayerC1Ev = __sdk_start + 0x4a2618;
_ZN2nn3hid15VibrationPlayerD2Ev = __sdk_start + 0x4a2678;
_ZN2nn3hid15VibrationPlayerD0Ev = __sdk_start + 0x4a267c;
_ZN2nn3hid15VibrationPlayer23SetVibrationFileAddressEPKvm = __sdk_start + 0x4a26a0;
_ZN2nn3hid15VibrationPlayer25UnsetVibrationFileAddressEv = __sdk_start + 0x4a2764;
_ZN2nn3hid15VibrationPlayer4LoadEPKvm = __sdk_start + 0x4a2774;
_ZN2nn3hid15VibrationPlayer6UnloadEv = __sdk_start + 0x4a27bc;
_ZN2nn3hid15VibrationPlayer4PlayEv = __sdk_start + 0x4a2818;
_ZN2nn3hid15VibrationPlayer4StopEv = __sdk_start + 0x4a2868;
_ZN2nn3hid15VibrationPlayer18SetCurrentPositionEi = __sdk_start + 0x4a28d8;
_ZN2nn3hid15VibrationPlayer7SetLoopEb = __sdk_start + 0x4a2958;
_ZN2nn3hid15VibrationPlayer12SetLoopRangeEii = __sdk_start + 0x4a29a4;
_ZN2nn3hid15VibrationPlayer20SetLoopStartPositionEi = __sdk_start + 0x4a2a00;
_ZN2nn3hid15VibrationPlayer18SetLoopEndPositionEi = __sdk_start + 0x4a2a50;
_ZN2nn3hid15VibrationPlayer15SetLoopIntervalEi = __sdk_start + 0x4a2aa0;
_ZN2nn3hid15VibrationPlayer12SetPlaySpeedEf = __sdk_start + 0x4a2af0;
_ZN2nn3hid15VibrationPlayer12SetDelayTimeEi = __sdk_start + 0x4a2b10;
_ZN2nn3hid15VibrationPlayer20OnNextSampleRequiredEPNS0_14VibrationValueEPNS_4util13IntrusiveListINS0_23VibrationNodeConnectionENS4_27IntrusiveListBaseNodeTraitsIS6_S6_EEEE = __sdk_start + 0x4a2b2c;
_ZN2nn3hid15VibrationTargetC1Ev = __sdk_start + 0x4a2ccc;
_ZN2nn3hid15VibrationTargetC1ERKNS0_21VibrationDeviceHandleE = __sdk_start + 0x4a2d18;
_ZN2nn3hid15VibrationTargetD1Ev = __sdk_start + 0x4a2d5c;
_ZN2nn3hid15VibrationTargetD0Ev = __sdk_start + 0x4a2d60;
_ZN2nn3hid15VibrationTarget24SetVibrationDeviceHandleERKNS0_21VibrationDeviceHandleE = __sdk_start + 0x4a2d84;
_ZN2nn3hid15VibrationTarget26UnsetVibrationDeviceHandleEv = __sdk_start + 0x4a2dd0;
_ZN2nn3hid15VibrationTarget24GetVibrationDeviceHandleEv = __sdk_start + 0x4a2e8c;
_ZN2nn3hid15VibrationTarget20OnNextSampleRequiredEPNS0_14VibrationValueEPNS_4util13IntrusiveListINS0_23VibrationNodeConnectionENS4_27IntrusiveListBaseNodeTraitsIS6_S6_EEEE = __sdk_start + 0x4a2f90;
_ZN2nn3hid15VibrationWriterC1Ev = __sdk_start + 0x4a3004;
_ZN2nn3hid15VibrationWriterD2Ev = __sdk_start + 0x4a3034;
_ZN2nn3hid15VibrationWriterD0Ev = __sdk_start + 0x4a3038;
_ZN2nn3hid15VibrationWriter5WriteERKNS0_14VibrationValueE = __sdk_start + 0x4a305c;
_ZN2nn3hid15VibrationWriter20OnNextSampleRequiredEPNS0_14VibrationValueEPNS_4util13IntrusiveListINS0_23VibrationNodeConnectionENS4_27IntrusiveListBaseNodeTraitsIS6_S6_EEEE = __sdk_start + 0x4a3060;
_ZN2nn3hid10GetXpadIdsEPNS0_11BasicXpadIdEi = __sdk_start + 0x4a3070;
_ZN2nn3hid14InitializeXpadERKNS0_11BasicXpadIdE = __sdk_start + 0x4a30b0;
_ZN2nn3hid10GetKeyCodeEPtiNS_4util10BitFlagSetILi32ENS0_16KeyboardModifierEEENS2_7BitPackIjNS0_14KeyboardLayoutEEE = __sdk_start + 0x4a6390;
_ZN2nn3hid15KeyCodeComposerC1Ev = __sdk_start + 0x4a68dc;
_ZN2nn3hid15KeyCodeComposer14SetDeadKeyModeEb = __sdk_start + 0x4a68e0;
_ZN2nn3hid15KeyCodeComposer21SetRomajiHiraganaModeEb = __sdk_start + 0x4a6904;
_ZN2nn3hid15KeyCodeComposer21SetRomajiKatakanaModeEb = __sdk_start + 0x4a6930;
_ZN2nn3hid15KeyCodeComposer14DequeueOutputsEPti = __sdk_start + 0x4a6968;
_ZN2nn3hid15KeyCodeComposer15EnqueueKeyCodesEPKti = __sdk_start + 0x4a696c;
_ZN2nn3hid15KeyCodeComposer14RemoveKeyCodesEPti = __sdk_start + 0x4a6970;
_ZN2nn3hid15KeyCodeComposer13FlushKeyCodesEv = __sdk_start + 0x4a6974;
_ZN2nn3hid15KeyCodeComposer15EnqueueAltCodesEPKii = __sdk_start + 0x4a6978;
_ZN2nn3hid15KeyCodeComposer13FlushAltCodesEv = __sdk_start + 0x4a697c;
_ZN2nn3hid15KeyCodeComposer5ClearEv = __sdk_start + 0x4a6980;
_ZN2nn3hid7utility23GetAppletResourceUserIdEv = __sdk_start + 0x4a6990;
_ZN2nn3hid7utility37GetAppletResourceUserIdOfCallerAppletEPNS_6applet20AppletResourceUserIdE = __sdk_start + 0x4a69a0;
_ZN2nn3hid7utility30MakeConsoleSixAxisSensorHandleEhi = __sdk_start + 0x4a69b0;
_ZN2nn3hid7utility32GetConsoleSixAxisSensorTypeValueERKNS0_26ConsoleSixAxisSensorHandleE = __sdk_start + 0x4a69c0;
_ZN2nn3hid7utility29GetConsoleSixAxisSensorHandleEPNS0_26ConsoleSixAxisSensorHandleE = __sdk_start + 0x4a69d0;
_ZN2nn3hid7utility23MakeSixAxisSensorHandleEhii = __sdk_start + 0x4a6a10;
_ZN2nn3hid7utility31GetSixAxisSensorHandleTypeValueERKNS0_19SixAxisSensorHandleE = __sdk_start + 0x4a6a20;
_ZN2nn3hid7utility36GetSixAxisSensorHandleNpadStyleIndexERKNS0_19SixAxisSensorHandleE = __sdk_start + 0x4a6a30;
_ZN2nn3hid7utility34GetSixAxisSensorHandlePlayerNumberERKNS0_19SixAxisSensorHandleE = __sdk_start + 0x4a6a40;
_ZN2nn3hid7utility32GetSixAxisSensorHandleNpadIdTypeERKNS0_19SixAxisSensorHandleE = __sdk_start + 0x4a6a50;
_ZN2nn3hid7utility38GetSixAxisSensorHandleSixAxisSensorIdxERKNS0_19SixAxisSensorHandleE = __sdk_start + 0x4a6a60;
_ZN2nn3hid7utility30VerifyValidSixAxisSensorHandleERKNS0_19SixAxisSensorHandleE = __sdk_start + 0x4a6a70;
_ZN2nn3hid7utility22GetSixAxisSensorHandleEPNS0_19SixAxisSensorHandleEPiijNS_4util10BitFlagSetILi32ENS0_12NpadStyleTagEEE = __sdk_start + 0x4a6ab0;
_ZN2nn3hid7utility32GetSixAxisSensorHandleIdxForNpadEPNS1_29SixAxisSensorHandleIdxForNpadERKNS_4util10BitFlagSetILi32ENS0_12NpadStyleTagEEERKi = __sdk_start + 0x4a6c30;
_ZN2nn3hid7utility32GetSixAxisSensorHandleIdxForNpadEPNS1_29SixAxisSensorHandleIdxForNpadERKNS0_19SixAxisSensorHandleE = __sdk_start + 0x4a6cd0;
_ZN2nn3hid7utility33GetVibrationDeviceIdxFromPositionENS0_23VibrationDevicePositionE = __sdk_start + 0x4a6d80;
_ZN2nn3hid7utility33GetVibrationDevicePositionFromIdxENS0_19VibrationDeviceTypeENS1_22NpadVibrationDeviceIdxE = __sdk_start + 0x4a6db0;
_ZN2nn3hid7utility25MakeVibrationDeviceHandleEhii = __sdk_start + 0x4a6df0;
_ZN2nn3hid7utility25GetVibrationDeviceHandlesEPNS0_21VibrationDeviceHandleEPiijNS_4util10BitFlagSetILi32ENS0_12NpadStyleTagEEE = __sdk_start + 0x4a6e00;
_ZN2nn3hid7utility37GetVibrationDeviceHandleNpadTypeValueERKNS0_21VibrationDeviceHandleE = __sdk_start + 0x4a7000;
_ZN2nn3hid7utility36GetVibrationDeviceHandlePlayerNumberERKNS0_21VibrationDeviceHandleE = __sdk_start + 0x4a7010;
_ZN2nn3hid7utility33GetVibrationDeviceHandleDeviceIdxERKNS0_21VibrationDeviceHandleE = __sdk_start + 0x4a7020;
_ZN2nn3hid6server33InitializeSharedMemoryForRingLifoEPNS_2os16SharedMemoryTypeEm = __sdk_start + 0x4a7030;
_ZN2nn3hid6server29AttachSharedMemoryForRingLifoEPNS_2os16SharedMemoryTypeEmjb = __sdk_start + 0x4a7090;
_ZN2nn3hid6server31FinalizeSharedMemoryForRingLifoEPNS_2os16SharedMemoryTypeE = __sdk_start + 0x4a70d0;
_ZN2nn3hid6server28InitializeSharedMemoryFormatEPNS1_18SharedMemoryFormatE = __sdk_start + 0x4a7100;
_ZN2nn3hid6server26FinalizeSharedMemoryFormatEPNS1_18SharedMemoryFormatE = __sdk_start + 0x4a7680;
_ZN2nn3hid6server18SharedMemoryHolderC1Ev = __sdk_start + 0x4a7684;
_ZN2nn3hid6server18SharedMemoryHolderC1EOS2_ = __sdk_start + 0x4a76a8;
_ZN2nn3hid6server18SharedMemoryHolder10InitializeEv = __sdk_start + 0x4a76f8;
_ZN2nn3hid6server18SharedMemoryHolder6AttachEjb = __sdk_start + 0x4a7774;
_ZN2nn3hid6server18SharedMemoryHolder8FinalizeEv = __sdk_start + 0x4a77d4;
_ZN2nn3hid6system6detail33StartAnalogStickManualCalibrationENS1_11UniquePadIdENS1_19AnalogStickPositionE = __sdk_start + 0x4a7820;
_ZN2nn3hid6system6detail45RetryCurrentAnalogStickManualCalibrationStageENS1_11UniquePadIdENS1_19AnalogStickPositionE = __sdk_start + 0x4a78a0;
_ZN2nn3hid6system6detail34CancelAnalogStickManualCalibrationENS1_11UniquePadIdENS1_19AnalogStickPositionE = __sdk_start + 0x4a7920;
_ZN2nn3hid6system6detail33ResetAnalogStickManualCalibrationENS1_11UniquePadIdENS1_19AnalogStickPositionE = __sdk_start + 0x4a79a0;
_ZN2nn3hid6system6detail23IsButtonConfigSupportedEPbRKNS_9bluetooth7AddressE = __sdk_start + 0x4a7a20;
_ZN2nn3hid6system6detail31IsButtonConfigEmbeddedSupportedEPb = __sdk_start + 0x4a7a90;
_ZN2nn3hid6system6detail18DeleteButtonConfigERKNS_9bluetooth7AddressE = __sdk_start + 0x4a7af0;
_ZN2nn3hid6system6detail26DeleteButtonConfigEmbeddedEv = __sdk_start + 0x4a7b50;
_ZN2nn3hid6system6detail22SetButtonConfigEnabledEbRKNS_9bluetooth7AddressE = __sdk_start + 0x4a7ba0;
_ZN2nn3hid6system6detail30SetButtonConfigEmbeddedEnabledEb = __sdk_start + 0x4a7c10;
_ZN2nn3hid6system6detail21IsButtonConfigEnabledEPbRKNS_9bluetooth7AddressE = __sdk_start + 0x4a7c70;
_ZN2nn3hid6system6detail29IsButtonConfigEmbeddedEnabledEPb = __sdk_start + 0x4a7ce0;
_ZN2nn3hid6system6detail15SetButtonConfigERKNS1_20ButtonConfigEmbeddedE = __sdk_start + 0x4a7d40;
_ZN2nn3hid6system6detail15SetButtonConfigERKNS1_16ButtonConfigFullERKNS_9bluetooth7AddressE = __sdk_start + 0x4a7da0;
_ZN2nn3hid6system6detail15SetButtonConfigERKNS1_16ButtonConfigLeftERKNS_9bluetooth7AddressE = __sdk_start + 0x4a7e10;
_ZN2nn3hid6system6detail15SetButtonConfigERKNS1_17ButtonConfigRightERKNS_9bluetooth7AddressE = __sdk_start + 0x4a7e80;
_ZN2nn3hid6system6detail15GetButtonConfigEPNS1_20ButtonConfigEmbeddedE = __sdk_start + 0x4a7ef0;
_ZN2nn3hid6system6detail15GetButtonConfigEPNS1_16ButtonConfigFullERKNS_9bluetooth7AddressE = __sdk_start + 0x4a7f50;
_ZN2nn3hid6system6detail15GetButtonConfigEPNS1_16ButtonConfigLeftERKNS_9bluetooth7AddressE = __sdk_start + 0x4a7fc0;
_ZN2nn3hid6system6detail15GetButtonConfigEPNS1_17ButtonConfigRightERKNS_9bluetooth7AddressE = __sdk_start + 0x4a8030;
_ZN2nn3hid6system6detail24InitializeFirmwareUpdateEv = __sdk_start + 0x4a80a0;
_ZN2nn3hid6system6detail19StartFirmwareUpdateEPNS1_26FirmwareUpdateDeviceHandleENS1_11UniquePadIdE = __sdk_start + 0x4a80f0;
_ZN2nn3hid6system6detail19AbortFirmwareUpdateEv = __sdk_start + 0x4a8160;
_ZN2nn3hid6system6detail18GetFirmwareVersionEPNS1_15FirmwareVersionENS1_11UniquePadIdE = __sdk_start + 0x4a81b0;
_ZN2nn3hid6system6detail27GetAvailableFirmwareVersionEPNS1_15FirmwareVersionENS1_11UniquePadIdE = __sdk_start + 0x4a8220;
_ZN2nn3hid6system6detail25IsFirmwareUpdateAvailableEPbNS1_11UniquePadIdE = __sdk_start + 0x4a8290;
_ZN2nn3hid6system6detail27CheckFirmwareUpdateRequiredEPNS1_28FirmwareUpdateRequiredReasonENS1_11UniquePadIdE = __sdk_start + 0x4a8320;
_ZN2nn3hid6system6detail22GetFirmwareUpdateStateEPNS1_19FirmwareUpdateStateERKNS1_26FirmwareUpdateDeviceHandleE = __sdk_start + 0x4a83a0;
_ZN2nn3hid6system6detail34SetFirmwareHotfixUpdateSkipEnabledEb = __sdk_start + 0x4a8410;
_ZN2nn3hid6system6detail27InitializeUsbFirmwareUpdateEv = __sdk_start + 0x4a8470;
_ZN2nn3hid6system6detail25FinalizeUsbFirmwareUpdateEv = __sdk_start + 0x4a84d0;
_ZN2nn3hid6system6detail30CheckUsbFirmwareUpdateRequiredEPNS1_28FirmwareUpdateRequiredReasonE = __sdk_start + 0x4a8530;
_ZN2nn3hid6system6detail22StartUsbFirmwareUpdateEv = __sdk_start + 0x4a85c0;
_ZN2nn3hid6system6detail25GetUsbFirmwareUpdateStateEPNS1_19FirmwareUpdateStateEPiS5_ = __sdk_start + 0x4a8620;
_ZN2nn3hid6system6detail29IsCustomButtonConfigSupportedEPbRKNS1_11UniquePadIdE = __sdk_start + 0x4a86b0;
_ZN2nn3hid6system6detail21IsDefaultButtonConfigEPbRKNS_9hidconfig20ButtonConfigEmbeddedE = __sdk_start + 0x4a8740;
_ZN2nn3hid6system6detail21IsDefaultButtonConfigEPbRKNS_9hidconfig16ButtonConfigFullE = __sdk_start + 0x4a87d0;
_ZN2nn3hid6system6detail21IsDefaultButtonConfigEPbRKNS_9hidconfig16ButtonConfigLeftE = __sdk_start + 0x4a8860;
_ZN2nn3hid6system6detail21IsDefaultButtonConfigEPbRKNS_9hidconfig17ButtonConfigRightE = __sdk_start + 0x4a88f0;
_ZN2nn3hid6system6detail34IsButtonConfigStorageEmbeddedEmptyEPbi = __sdk_start + 0x4a8980;
_ZN2nn3hid6system6detail30IsButtonConfigStorageFullEmptyEPbi = __sdk_start + 0x4a8a10;
_ZN2nn3hid6system6detail30IsButtonConfigStorageLeftEmptyEPbi = __sdk_start + 0x4a8aa0;
_ZN2nn3hid6system6detail31IsButtonConfigStorageRightEmptyEPbi = __sdk_start + 0x4a8b30;
_ZN2nn3hid6system6detail22GetButtonConfigStorageEPNS_9hidconfig20ButtonConfigEmbeddedEPNS3_11StorageNameEi = __sdk_start + 0x4a8bc0;
_ZN2nn3hid6system6detail22GetButtonConfigStorageEPNS_9hidconfig16ButtonConfigFullEPNS3_11StorageNameEi = __sdk_start + 0x4a8c30;
_ZN2nn3hid6system6detail22GetButtonConfigStorageEPNS_9hidconfig16ButtonConfigLeftEPNS3_11StorageNameEi = __sdk_start + 0x4a8ca0;
_ZN2nn3hid6system6detail22GetButtonConfigStorageEPNS_9hidconfig17ButtonConfigRightEPNS3_11StorageNameEi = __sdk_start + 0x4a8d10;
_ZN2nn3hid6system6detail22SetButtonConfigStorageERKNS_9hidconfig20ButtonConfigEmbeddedERKNS3_11StorageNameEi = __sdk_start + 0x4a8d80;
_ZN2nn3hid6system6detail22SetButtonConfigStorageERKNS_9hidconfig16ButtonConfigFullERKNS3_11StorageNameEi = __sdk_start + 0x4a8df0;
_ZN2nn3hid6system6detail22SetButtonConfigStorageERKNS_9hidconfig16ButtonConfigLeftERKNS3_11StorageNameEi = __sdk_start + 0x4a8e60;
_ZN2nn3hid6system6detail22SetButtonConfigStorageERKNS_9hidconfig17ButtonConfigRightERKNS3_11StorageNameEi = __sdk_start + 0x4a8ed0;
_ZN2nn3hid6system6detail33DeleteButtonConfigStorageEmbeddedEi = __sdk_start + 0x4a8f40;
_ZN2nn3hid6system6detail29DeleteButtonConfigStorageFullEi = __sdk_start + 0x4a8fa0;
_ZN2nn3hid6system6detail29DeleteButtonConfigStorageLeftEi = __sdk_start + 0x4a9000;
_ZN2nn3hid6system6detail30DeleteButtonConfigStorageRightEi = __sdk_start + 0x4a9060;
_ZN2nn3hid6system6detail25IsUsingCustomButtonConfigEPbRKNS1_11UniquePadIdE = __sdk_start + 0x4a90c0;
_ZN2nn3hid6system6detail30IsAnyCustomButtonConfigEnabledEPb = __sdk_start + 0x4a9150;
_ZN2nn3hid6system6detail31SetAllCustomButtonConfigEnabledEb = __sdk_start + 0x4a91d0;
_ZN2nn3hid6system6detail22SetDefaultButtonConfigERKNS1_11UniquePadIdE = __sdk_start + 0x4a9240;
_ZN2nn3hid6system6detail25SetAllDefaultButtonConfigEv = __sdk_start + 0x4a92a0;
_ZN2nn3hid6system6detail15SetButtonConfigERKNS_9hidconfig20ButtonConfigEmbeddedERKNS1_11UniquePadIdE = __sdk_start + 0x4a92f0;
_ZN2nn3hid6system6detail15SetButtonConfigERKNS_9hidconfig16ButtonConfigFullERKNS1_11UniquePadIdE = __sdk_start + 0x4a9360;
_ZN2nn3hid6system6detail15SetButtonConfigERKNS_9hidconfig16ButtonConfigLeftERKNS1_11UniquePadIdE = __sdk_start + 0x4a93d0;
_ZN2nn3hid6system6detail15SetButtonConfigERKNS_9hidconfig17ButtonConfigRightERKNS1_11UniquePadIdE = __sdk_start + 0x4a9440;
_ZN2nn3hid6system6detail15GetButtonConfigEPNS_9hidconfig20ButtonConfigEmbeddedERKNS1_11UniquePadIdE = __sdk_start + 0x4a94b0;
_ZN2nn3hid6system6detail15GetButtonConfigEPNS_9hidconfig16ButtonConfigFullERKNS1_11UniquePadIdE = __sdk_start + 0x4a9570;
_ZN2nn3hid6system6detail15GetButtonConfigEPNS_9hidconfig16ButtonConfigLeftERKNS1_11UniquePadIdE = __sdk_start + 0x4a9630;
_ZN2nn3hid6system6detail15GetButtonConfigEPNS_9hidconfig17ButtonConfigRightERKNS1_11UniquePadIdE = __sdk_start + 0x4a96e0;
_ZN2nn3hid6system6detail32BindJoyDetachOnBluetoothOffEventEPNS_2os15SystemEventTypeENS3_14EventClearModeE = __sdk_start + 0x4a9780;
_ZN2nn3hid6system6detail22IsJoyAttachedOnAllRailEPb = __sdk_start + 0x4a9840;
_ZN2nn3hid6system6detail21IsJoyConRailSupportedEPb = __sdk_start + 0x4a98a0;
_ZN2nn3hid6system6detail16EnableJoyConRailEv = __sdk_start + 0x4a9920;
_ZN2nn3hid6system6detail17DisableJoyConRailEv = __sdk_start + 0x4a9990;
_ZN2nn3hid6system6detail19IsJoyConRailEnabledEPb = __sdk_start + 0x4a9a00;
_ZN2nn3hid6system6detail24SendKeyboardLockKeyEventENS_4util10BitFlagSetILi32ENS1_20KeyboardLockKeyEventEEE = __sdk_start + 0x4a9a80;
_ZN2nn3hid6system6detail22SetSystemKeyboardStateERKNS1_19SystemKeyboardStateE = __sdk_start + 0x4a9b00;
_ZN2nn3hid6system6detail24UnsetSystemKeyboardStateEv = __sdk_start + 0x4a9bb0;
_ZN2nn3hid6system6detail27ApplyNpadSystemCommonPolicyEv = __sdk_start + 0x4a9c20;
_ZN2nn3hid6system6detail31ApplyNpadSystemCommonPolicyFullEv = __sdk_start + 0x4a9c80;
_ZN2nn3hid6system6detail27SetSupportedNpadStyleSetAllEv = __sdk_start + 0x4a9ce0;
_ZN2nn3hid6system6detail20BindNfcActivateEventERjPNS_2os15SystemEventTypeENS4_14EventClearModeE = __sdk_start + 0x4a9d40;
_ZN2nn3hid6system6detail26GetXcdHandleForNpadWithNfcEPNS_3xcd12DeviceHandleERj = __sdk_start + 0x4a9df0;
_ZN2nn3hid6system6detail11ActivateNfcERjNS_6applet20AppletResourceUserIdE = __sdk_start + 0x4a9e60;
_ZN2nn3hid6system6detail13DeactivateNfcERjNS_6applet20AppletResourceUserIdE = __sdk_start + 0x4a9ed0;
_ZN2nn3hid6system6detail14IsNfcActivatedEPbRj = __sdk_start + 0x4a9f40;
_ZN2nn3hid6system6detail32EnableAssigningSingleOnSlSrPressEv = __sdk_start + 0x4a9fb0;
_ZN2nn3hid6system6detail33DisableAssigningSingleOnSlSrPressEv = __sdk_start + 0x4aa010;
_ZN2nn3hid6system6detail30SetNpadPlayerLedBlinkingDeviceERKjRKNS_4util10BitFlagSetILi32ENS1_10DeviceTypeEEE = __sdk_start + 0x4aa070;
_ZN2nn3hid6system6detail27GetLastActiveNpadControllerEPj = __sdk_start + 0x4aa0f0;
_ZN2nn3hid6system6detail21GetNpadSystemExtStyleEPNS1_18AppletFooterUiTypeEPNS1_21NpadSystemExtSubStyleERKj = __sdk_start + 0x4aa150;
_ZN2nn3hid6system6detail22GetAppletFooterUiTypesEPNS1_18AppletFooterUiTypeERKj = __sdk_start + 0x4aa1f0;
_ZN2nn3hid6system6detail24GetAppletDetailedUiTypesEPNS1_20AppletDetailedUiTypeERKj = __sdk_start + 0x4aa260;
_ZN2nn3hid6system6detail21GetUniquePadsFromNpadEPiPNS1_11UniquePadIdEiRKj = __sdk_start + 0x4aa2d0;
_ZN2nn3hid6system6detail23GetNpadFullKeyGripColorEPNS_4util8Unorm8x4ES5_RKj = __sdk_start + 0x4aa370;
_ZN2nn3hid6system6detail36IsHandheldButtonPressedOnConsoleModeEPb = __sdk_start + 0x4aa400;
_ZN2nn3hid6system6detail38SetSupportedNpadStyleSetOfCallerAppletENS_4util10BitFlagSetILi32ENS0_12NpadStyleTagEEE = __sdk_start + 0x4aa480;
_ZN2nn3hid6system6detail38GetSupportedNpadStyleSetOfCallerAppletEPNS_4util10BitFlagSetILi32ENS0_12NpadStyleTagEEE = __sdk_start + 0x4aa490;
_ZN2nn3hid6system6detail38GetNpadCaptureButtonAssignmentOfCallerEPiPNS1_31NpadCaptureButtonAssignmentTypeEi = __sdk_start + 0x4aa530;
_ZN2nn3hid6system6detail10HasBatteryEPbRKj = __sdk_start + 0x4aa5f0;
_ZN2nn3hid6system6detail10HasBatteryEPbS3_RKj = __sdk_start + 0x4aa670;
_ZN2nn3hid6system6detail20GetNpadInterfaceTypeEPhRKj = __sdk_start + 0x4aa700;
_ZN2nn3hid6system6detail20GetNpadInterfaceTypeEPhS3_RKj = __sdk_start + 0x4aa780;
_ZN2nn3hid6system6detail24EnableNpadSystemExtStateEv = __sdk_start + 0x4aa810;
_ZN2nn3hid6system6detail25DisableNpadSystemExtStateEv = __sdk_start + 0x4aa890;
_ZN2nn3hid6system6detail30GetAbstractedPadIdDataFromNpadEPiPliRKj = __sdk_start + 0x4aa910;
_ZN2nn3hid6system6detail25AttachAbstractedPadToNpadEPblRKj = __sdk_start + 0x4aa9b0;
_ZN2nn3hid6system6detail22DetachAbstractedPadAllEv = __sdk_start + 0x4aaa40;
_ZN2nn3hid6system6detail28CheckAbstractedPadConnectionEl = __sdk_start + 0x4aaab0;
_ZN2nn3hid6system6detail20GetRegisteredDevicesEPiPNS1_16RegisteredDeviceEi = __sdk_start + 0x4aab30;
_ZN2nn3hid6system6detail31GetConnectableRegisteredDevicesEPiPNS1_16RegisteredDeviceEi = __sdk_start + 0x4aabd0;
_ZN2nn3hid6system6detail33BindConnectionTriggerTimeoutEventEPNS_2os15SystemEventTypeENS3_14EventClearModeE = __sdk_start + 0x4aac70;
_ZN2nn3hid6system6detail21SendConnectionTriggerENS_9bluetooth7AddressE = __sdk_start + 0x4aad20;
_ZN2nn3hid6system6detail40SendConnectionTriggerWithoutTimeoutEventENS_9bluetooth7AddressE = __sdk_start + 0x4aad80;
_ZN2nn3hid6system6detail23CancelConnectionTriggerERKNS_9bluetooth7AddressE = __sdk_start + 0x4aade0;
_ZN2nn3hid6system6detail45BindDeviceRegisteredEventForControllerSupportEPNS_2os15SystemEventTypeENS3_14EventClearModeE = __sdk_start + 0x4aae40;
_ZN2nn3hid6system6detail29GetAllowedBluetoothLinksCountEv = __sdk_start + 0x4aaef0;
_ZN2nn3hid6system6detail27SetTouchScreenMagnificationEffff = __sdk_start + 0x4aaf50;
_ZN2nn3hid6system6detail34SetTouchScreenDefaultConfigurationERKNS0_29TouchScreenConfigurationForNxE = __sdk_start + 0x4aaff0;
_ZN2nn3hid6system6detail34GetTouchScreenDefaultConfigurationEPNS0_29TouchScreenConfigurationForNxE = __sdk_start + 0x4ab070;
_ZN2nn3hid6system6detail29GetTouchScreenFirmwareVersionEPNS1_15FirmwareVersionE = __sdk_start + 0x4ab0f0;
_ZN2nn3hid6system6detail28BindUniquePadConnectionEventEPNS_2os15SystemEventTypeENS3_14EventClearModeE = __sdk_start + 0x4ab170;
_ZN2nn3hid6system6detail14ListUniquePadsEPiPNS1_11UniquePadIdEi = __sdk_start + 0x4ab220;
_ZN2nn3hid6system6detail16GetUniquePadTypeEPNS1_13UniquePadTypeENS1_11UniquePadIdE = __sdk_start + 0x4ab2f0;
_ZN2nn3hid6system6detail21GetUniquePadInterfaceEPNS1_18UniquePadInterfaceENS1_11UniquePadIdE = __sdk_start + 0x4ab380;
_ZN2nn3hid6system6detail28GetUniquePadControllerNumberEPiNS1_11UniquePadIdE = __sdk_start + 0x4ab410;
_ZN2nn3hid6system6detail24GetUniquePadSerialNumberEPNS1_21UniquePadSerialNumberENS1_11UniquePadIdE = __sdk_start + 0x4ab4a0;
_ZN2nn3hid6system6detail28GetUniquePadBluetoothAddressEPNS_9bluetooth7AddressENS1_11UniquePadIdE = __sdk_start + 0x4ab520;
_ZN2nn3hid6system6detail19DisconnectUniquePadENS1_11UniquePadIdE = __sdk_start + 0x4ab5a0;
_ZN2nn3hid6system6detail24ListSixAxisSensorHandlesEPiPNS1_25UniqueSixAxisSensorHandleENS1_11UniquePadIdEi = __sdk_start + 0x4ab600;
_ZN2nn3hid6system6detail35GetConsoleUniqueSixAxisSensorHandleEPNS1_25UniqueSixAxisSensorHandleE = __sdk_start + 0x4ab6d0;
_ZN2nn3hid6system6detail39IsSixAxisSensorUserCalibrationSupportedEPbNS1_25UniqueSixAxisSensorHandleE = __sdk_start + 0x4ab740;
_ZN2nn3hid6system6detail35ResetSixAxisSensorCalibrationValuesENS1_25UniqueSixAxisSensorHandleE = __sdk_start + 0x4ab7d0;
_ZN2nn3hid6system6detail33StartSixAxisSensorUserCalibrationENS1_25UniqueSixAxisSensorHandleE = __sdk_start + 0x4ab830;
_ZN2nn3hid6system6detail36GetSixAxisSensorUserCalibrationStageEPNS1_33SixAxisSensorUserCalibrationStageENS1_25UniqueSixAxisSensorHandleE = __sdk_start + 0x4ab890;
_ZN2nn3hid6system6detail34CancelSixAxisSensorUserCalibrationENS1_25UniqueSixAxisSensorHandleE = __sdk_start + 0x4ab900;
_ZN2nn3hid6system6detail19GetAnalogStickStateEPNS0_16AnalogStickStateENS1_11UniquePadIdENS1_19AnalogStickPositionE = __sdk_start + 0x4ab960;
_ZN2nn3hid6system6detail36GetAnalogStickManualCalibrationStageEPNS1_33AnalogStickManualCalibrationStageENS1_11UniquePadIdENS1_19AnalogStickPositionE = __sdk_start + 0x4ab9d0;
_ZN2nn3hid6system6detail26IsAnalogStickButtonPressedEPbNS1_11UniquePadIdENS1_19AnalogStickPositionE = __sdk_start + 0x4aba70;
_ZN2nn3hid6system6detail30IsAnalogStickInReleasePositionEPbNS1_11UniquePadIdENS1_19AnalogStickPositionE = __sdk_start + 0x4abae0;
_ZN2nn3hid6system6detail28IsAnalogStickInCircumferenceEPbNS1_11UniquePadIdENS1_19AnalogStickPositionE = __sdk_start + 0x4abb50;
_ZN2nn3hid6system6detail47IsSixAxisSensorAccurateUserCalibrationSupportedEPbRKNS1_25UniqueSixAxisSensorHandleE = __sdk_start + 0x4abbc0;
_ZN2nn3hid6system6detail41StartSixAxisSensorAccurateUserCalibrationERKNS1_25UniqueSixAxisSensorHandleE = __sdk_start + 0x4abc50;
_ZN2nn3hid6system6detail44GetSixAxisSensorAccurateUserCalibrationStateEPNS1_41SixAxisSensorAccurateUserCalibrationStateERKNS1_25UniqueSixAxisSensorHandleE = __sdk_start + 0x4abce0;
_ZN2nn3hid6system6detail42CancelSixAxisSensorAccurateUserCalibrationERKNS1_25UniqueSixAxisSensorHandleE = __sdk_start + 0x4abd70;
_ZN2nn3hid6system6detail25SetNotificationLedPatternERKNS1_22NotificationLedPatternERKNS1_11UniquePadIdE = __sdk_start + 0x4abe00;
_ZN2nn3hid6system6detail36SetNotificationLedPatternWithTimeoutERKNS1_22NotificationLedPatternERKNS1_11UniquePadIdENS_8TimeSpanE = __sdk_start + 0x4abe70;
_ZN2nn3hid6system6detail22GetLastActiveUniquePadEPNS1_11UniquePadIdE = __sdk_start + 0x4abee0;
_ZN2nn3hid6system6detail21GetUniquePadButtonSetEPNS_4util10BitFlagSetILi64ENS1_15UniquePadButtonEEERKNS1_11UniquePadIdE = __sdk_start + 0x4abf40;
_ZN2nn3hid6system6detail17GetUniquePadColorEPNS1_15ControllerColorERKNS1_11UniquePadIdE = __sdk_start + 0x4abfb0;
_ZN2nn3hid6system6detail23GetAppletDetailedUiTypeEPNS1_20AppletDetailedUiTypeERKNS1_11UniquePadIdE = __sdk_start + 0x4ac020;
_ZN2nn3hid6system6detail29IsUsbFullKeyControllerEnabledEPb = __sdk_start + 0x4ac090;
_ZN2nn3hid6system6detail26EnableUsbFullKeyControllerEb = __sdk_start + 0x4ac0f0;
_ZN2nn3hid6system6detail14IsUsbConnectedEPbNS1_11UniquePadIdE = __sdk_start + 0x4ac150;
_ZN2nn3hid6system6detail24SetVibrationMasterVolumeEf = __sdk_start + 0x4ac1c0;
_ZN2nn3hid6system6detail24GetVibrationMasterVolumeEPf = __sdk_start + 0x4ac240;
_ZN2nn3hid6system6detail32SendVibrationNotificationPatternERKNS0_21VibrationDeviceHandleEi = __sdk_start + 0x4ac2c0;
_ZN2nn3hid6system19GetAnalogStickStateEPNS0_16AnalogStickStateENS1_11UniquePadIdENS1_19AnalogStickPositionE = __sdk_start + 0x4ac350;
_ZN2nn3hid6system26IsAnalogStickButtonPressedENS1_11UniquePadIdENS1_19AnalogStickPositionE = __sdk_start + 0x4ac380;
_ZN2nn3hid6system33StartAnalogStickManualCalibrationENS1_11UniquePadIdENS1_19AnalogStickPositionE = __sdk_start + 0x4ac3c0;
_ZN2nn3hid6system36GetAnalogStickManualCalibrationStageEPNS1_33AnalogStickManualCalibrationStageENS1_11UniquePadIdENS1_19AnalogStickPositionE = __sdk_start + 0x4ac3f0;
_ZN2nn3hid6system45RetryCurrentAnalogStickManualCalibrationStageENS1_11UniquePadIdENS1_19AnalogStickPositionE = __sdk_start + 0x4ac400;
_ZN2nn3hid6system34CancelAnalogStickManualCalibrationENS1_11UniquePadIdENS1_19AnalogStickPositionE = __sdk_start + 0x4ac430;
_ZN2nn3hid6system33ResetAnalogStickManualCalibrationENS1_11UniquePadIdENS1_19AnalogStickPositionE = __sdk_start + 0x4ac460;
_ZN2nn3hid6system30IsAnalogStickInReleasePositionENS1_11UniquePadIdENS1_19AnalogStickPositionE = __sdk_start + 0x4ac490;
_ZN2nn3hid6system28IsAnalogStickInCircumferenceENS1_11UniquePadIdENS1_19AnalogStickPositionE = __sdk_start + 0x4ac4d0;
_ZN2nn3hid6system23IsButtonConfigSupportedERKNS_9bluetooth7AddressE = __sdk_start + 0x4ac510;
_ZN2nn3hid6system31IsButtonConfigEmbeddedSupportedEv = __sdk_start + 0x4ac550;
_ZN2nn3hid6system18DeleteButtonConfigERKNS_9bluetooth7AddressE = __sdk_start + 0x4ac590;
_ZN2nn3hid6system26DeleteButtonConfigEmbeddedEv = __sdk_start + 0x4ac5a0;
_ZN2nn3hid6system22SetButtonConfigEnabledEbRKNS_9bluetooth7AddressE = __sdk_start + 0x4ac5d0;
_ZN2nn3hid6system30SetButtonConfigEmbeddedEnabledEb = __sdk_start + 0x4ac5e0;
_ZN2nn3hid6system21IsButtonConfigEnabledERKNS_9bluetooth7AddressE = __sdk_start + 0x4ac5f0;
_ZN2nn3hid6system29IsButtonConfigEmbeddedEnabledEv = __sdk_start + 0x4ac630;
_ZN2nn3hid6system15SetButtonConfigERKNS1_20ButtonConfigEmbeddedE = __sdk_start + 0x4ac670;
_ZN2nn3hid6system15SetButtonConfigERKNS1_16ButtonConfigFullERKNS_9bluetooth7AddressE = __sdk_start + 0x4ac680;
_ZN2nn3hid6system15SetButtonConfigERKNS1_16ButtonConfigLeftERKNS_9bluetooth7AddressE = __sdk_start + 0x4ac690;
_ZN2nn3hid6system15SetButtonConfigERKNS1_17ButtonConfigRightERKNS_9bluetooth7AddressE = __sdk_start + 0x4ac6a0;
_ZN2nn3hid6system15GetButtonConfigEPNS1_20ButtonConfigEmbeddedE = __sdk_start + 0x4ac6b0;
_ZN2nn3hid6system15GetButtonConfigEPNS1_16ButtonConfigFullERKNS_9bluetooth7AddressE = __sdk_start + 0x4ac6c0;
_ZN2nn3hid6system15GetButtonConfigEPNS1_16ButtonConfigLeftERKNS_9bluetooth7AddressE = __sdk_start + 0x4ac6d0;
_ZN2nn3hid6system15GetButtonConfigEPNS1_17ButtonConfigRightERKNS_9bluetooth7AddressE = __sdk_start + 0x4ac6e0;
_ZN2nn3hid6system24InitializeFirmwareUpdateEv = __sdk_start + 0x4ac6f0;
_ZN2nn3hid6system19StartFirmwareUpdateEPNS1_26FirmwareUpdateDeviceHandleENS1_11UniquePadIdE = __sdk_start + 0x4ac720;
_ZN2nn3hid6system19AbortFirmwareUpdateEv = __sdk_start + 0x4ac730;
_ZN2nn3hid6system18GetFirmwareVersionEPNS1_15FirmwareVersionENS1_11UniquePadIdE = __sdk_start + 0x4ac740;
_ZN2nn3hid6system27GetAvailableFirmwareVersionEPNS1_15FirmwareVersionENS1_11UniquePadIdE = __sdk_start + 0x4ac750;
_ZN2nn3hid6system25IsFirmwareUpdateAvailableEPbNS1_11UniquePadIdE = __sdk_start + 0x4ac760;
_ZN2nn3hid6system27CheckFirmwareUpdateRequiredEPNS1_28FirmwareUpdateRequiredReasonENS1_11UniquePadIdE = __sdk_start + 0x4ac770;
_ZN2nn3hid6system22GetFirmwareUpdateStateEPNS1_19FirmwareUpdateStateERKNS1_26FirmwareUpdateDeviceHandleE = __sdk_start + 0x4ac780;
_ZN2nn3hid6system34SetFirmwareHotfixUpdateSkipEnabledEb = __sdk_start + 0x4ac790;
_ZN2nn3hid6system27InitializeUsbFirmwareUpdateEPvm = __sdk_start + 0x4ac7c0;
_ZN2nn3hid6system27InitializeUsbFirmwareUpdateEv = __sdk_start + 0x4ac7f0;
_ZN2nn3hid6system25FinalizeUsbFirmwareUpdateEv = __sdk_start + 0x4ac820;
_ZN2nn3hid6system30CheckUsbFirmwareUpdateRequiredEPNS1_28FirmwareUpdateRequiredReasonE = __sdk_start + 0x4ac850;
_ZN2nn3hid6system22StartUsbFirmwareUpdateEv = __sdk_start + 0x4ac860;
_ZN2nn3hid6system25GetUsbFirmwareUpdateStateEPNS1_19FirmwareUpdateStateEPiS4_ = __sdk_start + 0x4ac870;
_ZN2nn3hid6system32BindJoyDetachOnBluetoothOffEventEPNS_2os15SystemEventTypeENS2_14EventClearModeE = __sdk_start + 0x4ad220;
_ZN2nn3hid6system22IsJoyAttachedOnAllRailEv = __sdk_start + 0x4ad250;
_ZN2nn3hid6system21IsJoyConRailSupportedEv = __sdk_start + 0x4ad290;
_ZN2nn3hid6system16EnableJoyConRailEv = __sdk_start + 0x4ad2d0;
_ZN2nn3hid6system17DisableJoyConRailEv = __sdk_start + 0x4ad300;
_ZN2nn3hid6system19IsJoyConRailEnabledEv = __sdk_start + 0x4ad330;
_ZN2nn3hid6system24SendKeyboardLockKeyEventENS_4util10BitFlagSetILi32ENS1_20KeyboardLockKeyEventEEE = __sdk_start + 0x4ad370;
_ZN2nn3hid6system22SetSystemKeyboardStateERKNS1_19SystemKeyboardStateE = __sdk_start + 0x4ad3a0;
_ZN2nn3hid6system24UnsetSystemKeyboardStateEv = __sdk_start + 0x4ad3d0;
_ZN2nn3hid6system38GetNpadCaptureButtonAssignmentOfCallerEPNS1_31NpadCaptureButtonAssignmentTypeEi = __sdk_start + 0x4ad400;
_ZN2nn3hid6system30SetNpadPlayerLedBlinkingDeviceERKjRKNS_4util10BitFlagSetILi32ENS1_10DeviceTypeEEE = __sdk_start + 0x4ad440;
_ZN2nn3hid6system36IsHandheldButtonPressedOnConsoleModeEv = __sdk_start + 0x4ad4a0;
_ZN2nn3hid6system27ApplyNpadSystemCommonPolicyEv = __sdk_start + 0x4ad4e0;
_ZN2nn3hid6system31ApplyNpadSystemCommonPolicyFullEv = __sdk_start + 0x4ad510;
_ZN2nn3hid6system27SetSupportedNpadStyleSetAllEv = __sdk_start + 0x4ad540;
_ZN2nn3hid6system32EnableAssigningSingleOnSlSrPressEv = __sdk_start + 0x4ad570;
_ZN2nn3hid6system33DisableAssigningSingleOnSlSrPressEv = __sdk_start + 0x4ad5a0;
_ZN2nn3hid6system27GetLastActiveNpadControllerEPj = __sdk_start + 0x4ad5d0;
_ZN2nn3hid6system21GetNpadSystemExtStyleEPNS1_18AppletFooterUiTypeEPNS1_21NpadSystemExtSubStyleERKj = __sdk_start + 0x4ad5e0;
_ZN2nn3hid6system24GetAppletDetailedUiTypesERKj = __sdk_start + 0x4ad640;
_ZN2nn3hid6system21GetUniquePadsFromNpadEPNS1_11UniquePadIdEiRKj = __sdk_start + 0x4ad6b0;
_ZN2nn3hid6system10HasBatteryERKj = __sdk_start + 0x4ad720;
_ZN2nn3hid6system10HasBatteryEPbS2_RKj = __sdk_start + 0x4ad790;
_ZN2nn3hid6system20GetNpadInterfaceTypeERKj = __sdk_start + 0x4ad7f0;
_ZN2nn3hid6system20GetNpadInterfaceTypeEPhS2_RKj = __sdk_start + 0x4ad860;
_ZN2nn3hid6system23GetNpadFullKeyGripColorEPNS_4util8Unorm8x4ES4_RKj = __sdk_start + 0x4ad8c0;
_ZN2nn3hid6system38SetSupportedNpadStyleSetOfCallerAppletENS_4util10BitFlagSetILi32ENS0_12NpadStyleTagEEE = __sdk_start + 0x4ad910;
_ZN2nn3hid6system38GetSupportedNpadStyleSetOfCallerAppletEv = __sdk_start + 0x4ad940;
_ZN2nn3hid6system24EnableNpadSystemExtStateEv = __sdk_start + 0x4ad980;
_ZN2nn3hid6system25DisableNpadSystemExtStateEv = __sdk_start + 0x4ad9b0;
_ZN2nn3hid6system30GetAbstractedPadIdDataFromNpadEPlij = __sdk_start + 0x4ad9e0;
_ZN2nn3hid6system25AttachAbstractedPadToNpadElj = __sdk_start + 0x4ada60;
_ZN2nn3hid6system22DetachAbstractedPadAllEv = __sdk_start + 0x4adab0;
_ZN2nn3hid6system28CheckAbstractedPadConnectionEl = __sdk_start + 0x4adae0;
_ZN2nn3hid6system17GetNpadDeviceTypeERKj = __sdk_start + 0x4adb00;
_ZN2nn3hid6system16GetNpadPowerInfoERKj = __sdk_start + 0x4adb70;
_ZN2nn3hid6system16GetNpadPowerInfoEPNS1_9PowerInfoES3_RKj = __sdk_start + 0x4adbd0;
_ZN2nn3hid6system20IsAbxyButtonOrientedERKj = __sdk_start + 0x4adc30;
_ZN2nn3hid6system20IsSlSrButtonOrientedERKj = __sdk_start + 0x4adca0;
_ZN2nn3hid6system28GetPlusMinusButtonCapabilityEPbS2_RKj = __sdk_start + 0x4add10;
_ZN2nn3hid6system29IsDirectionalButtonsSupportedERKj = __sdk_start + 0x4add70;
_ZN2nn3hid6system26IsUnsupportedButtonPressedERKjRKNS_4util10BitFlagSetILi32ENS0_12NpadStyleTagEEE = __sdk_start + 0x4adde0;
_ZN2nn3hid6system22GetAppletFooterUiTypesERKj = __sdk_start + 0x4ade50;
_ZN2nn3hid6system30GetAppletFooterUiAttributesSetERKj = __sdk_start + 0x4adec0;
_ZN2nn3hid6system12GetNpadStateEPNS1_15NpadSystemStateERKj = __sdk_start + 0x4adf30;
_ZN2nn3hid6system13GetNpadStatesEPNS1_15NpadSystemStateEiRKj = __sdk_start + 0x4adfa0;
_ZN2nn3hid6system12GetNpadStateEPNS1_18NpadSystemExtStateERKj = __sdk_start + 0x4ae010;
_ZN2nn3hid6system13GetNpadStatesEPNS1_18NpadSystemExtStateEiRKj = __sdk_start + 0x4ae080;
_ZN2nn3hid6system20GetRegisteredDevicesEPNS1_16RegisteredDeviceEi = __sdk_start + 0x4ae0f0;
_ZN2nn3hid6system31GetConnectableRegisteredDevicesEPNS1_16RegisteredDeviceEi = __sdk_start + 0x4ae130;
_ZN2nn3hid6system33BindConnectionTriggerTimeoutEventEPNS_2os15SystemEventTypeENS2_14EventClearModeE = __sdk_start + 0x4ae170;
_ZN2nn3hid6system21SendConnectionTriggerENS_9bluetooth7AddressE = __sdk_start + 0x4ae1a0;
_ZN2nn3hid6system40SendConnectionTriggerWithoutTimeoutEventENS_9bluetooth7AddressE = __sdk_start + 0x4ae1b0;
_ZN2nn3hid6system23CancelConnectionTriggerERKNS_9bluetooth7AddressE = __sdk_start + 0x4ae1c0;
_ZN2nn3hid6system45BindDeviceRegisteredEventForControllerSupportEPNS_2os15SystemEventTypeENS2_14EventClearModeE = __sdk_start + 0x4ae1d0;
_ZN2nn3hid6system29GetAllowedBluetoothLinksCountEv = __sdk_start + 0x4ae200;
_ZN2nn3hid6system27SetTouchScreenMagnificationEffff = __sdk_start + 0x4ae210;
_ZN2nn3hid6system39SetTouchScreenDefaultConfigurationForNxERKNS0_29TouchScreenConfigurationForNxE = __sdk_start + 0x4ae240;
_ZN2nn3hid6system39GetTouchScreenDefaultConfigurationForNxEv = __sdk_start + 0x4ae270;
_ZN2nn3hid6system29GetTouchScreenFirmwareVersionEPNS1_15FirmwareVersionE = __sdk_start + 0x4ae2b0;
_ZN2nn3hid6system28BindUniquePadConnectionEventEPNS_2os15SystemEventTypeENS2_14EventClearModeE = __sdk_start + 0x4ae2c0;
_ZN2nn3hid6system14ListUniquePadsEPNS1_11UniquePadIdEi = __sdk_start + 0x4ae2f0;
_ZN2nn3hid6system16GetUniquePadTypeENS1_11UniquePadIdE = __sdk_start + 0x4ae330;
_ZN2nn3hid6system21GetUniquePadInterfaceEPNS1_18UniquePadInterfaceENS1_11UniquePadIdE = __sdk_start + 0x4ae370;
_ZN2nn3hid6system28GetUniquePadControllerNumberEPiNS1_11UniquePadIdE = __sdk_start + 0x4ae380;
_ZN2nn3hid6system24GetUniquePadSerialNumberEPNS1_21UniquePadSerialNumberENS1_11UniquePadIdE = __sdk_start + 0x4ae390;
_ZN2nn3hid6system28GetUniquePadBluetoothAddressEPNS_9bluetooth7AddressENS1_11UniquePadIdE = __sdk_start + 0x4ae3a0;
_ZN2nn3hid6system19DisconnectUniquePadENS1_11UniquePadIdE = __sdk_start + 0x4ae3e0;
_ZN2nn3hid6system24ListSixAxisSensorHandlesEPNS1_25UniqueSixAxisSensorHandleERKNS1_11UniquePadIdEi = __sdk_start + 0x4ae3f0;
_ZN2nn3hid6system35GetConsoleUniqueSixAxisSensorHandleEPNS1_25UniqueSixAxisSensorHandleE = __sdk_start + 0x4ae440;
_ZN2nn3hid6system39IsSixAxisSensorUserCalibrationSupportedERKNS1_25UniqueSixAxisSensorHandleE = __sdk_start + 0x4ae450;
_ZN2nn3hid6system35ResetSixAxisSensorCalibrationValuesERKNS1_25UniqueSixAxisSensorHandleE = __sdk_start + 0x4ae490;
_ZN2nn3hid6system33StartSixAxisSensorUserCalibrationERKNS1_25UniqueSixAxisSensorHandleE = __sdk_start + 0x4ae4a0;
_ZN2nn3hid6system36GetSixAxisSensorUserCalibrationStageEPNS1_33SixAxisSensorUserCalibrationStageERKNS1_25UniqueSixAxisSensorHandleE = __sdk_start + 0x4ae4b0;
_ZN2nn3hid6system34CancelSixAxisSensorUserCalibrationERKNS1_25UniqueSixAxisSensorHandleE = __sdk_start + 0x4ae4c0;
_ZN2nn3hid6system47IsSixAxisSensorAccurateUserCalibrationSupportedERKNS1_25UniqueSixAxisSensorHandleE = __sdk_start + 0x4ae4f0;
_ZN2nn3hid6system41StartSixAxisSensorAccurateUserCalibrationERKNS1_25UniqueSixAxisSensorHandleE = __sdk_start + 0x4ae530;
_ZN2nn3hid6system42CancelSixAxisSensorAccurateUserCalibrationERKNS1_25UniqueSixAxisSensorHandleE = __sdk_start + 0x4ae540;
_ZN2nn3hid6system44GetSixAxisSensorAccurateUserCalibrationStateEPNS1_41SixAxisSensorAccurateUserCalibrationStateERKNS1_25UniqueSixAxisSensorHandleE = __sdk_start + 0x4ae570;
_ZN2nn3hid6system33SetNotificationLedPatternForDebugENS1_22NotificationLedPatternERKNS1_11UniquePadIdE = __sdk_start + 0x4ae580;
_ZN2nn3hid6system25SetNotificationLedPatternENS1_22NotificationLedPatternERKNS1_11UniquePadIdENS_8TimeSpanE = __sdk_start + 0x4ae590;
_ZN2nn3hid6system22GetLastActiveUniquePadEPNS1_11UniquePadIdE = __sdk_start + 0x4ae5a0;
_ZN2nn3hid6system21GetUniquePadButtonSetERKNS1_11UniquePadIdE = __sdk_start + 0x4ae5b0;
_ZN2nn3hid6system17GetUniquePadColorEPNS1_15ControllerColorENS1_11UniquePadIdE = __sdk_start + 0x4ae5f0;
_ZN2nn3hid6system23GetAppletDetailedUiTypeEPNS1_20AppletDetailedUiTypeENS1_11UniquePadIdE = __sdk_start + 0x4ae620;
_ZN2nn3hid6system26EnableUsbFullKeyControllerEb = __sdk_start + 0x4ae650;
_ZN2nn3hid6system29IsUsbFullKeyControllerEnabledEv = __sdk_start + 0x4ae680;
_ZN2nn3hid6system14IsUsbConnectedENS1_11UniquePadIdE = __sdk_start + 0x4ae6c0;
_ZN2nn3hid6system27BeginPermitVibrationSessionEv = __sdk_start + 0x4ae700;
_ZN2nn3hid6system25EndPermitVibrationSessionEv = __sdk_start + 0x4ae730;
_ZN2nn3hid6system15PermitVibrationEb = __sdk_start + 0x4ae760;
_ZN2nn3hid6system32SendVibrationNotificationPatternERKNS0_21VibrationDeviceHandleENS1_28VibrationNotificationPatternE = __sdk_start + 0x4ae790;
_ZN2nn3hid6system6detail23SetAppletResourceUserIdERKNS_6applet20AppletResourceUserIdE = __sdk_start + 0x4ae7d0;
_ZN2nn3hid6system6detail28RegisterAppletResourceUserIdERKNS_6applet20AppletResourceUserIdEb = __sdk_start + 0x4ae850;
_ZN2nn3hid6system6detail30UnregisterAppletResourceUserIdERKNS_6applet20AppletResourceUserIdE = __sdk_start + 0x4ae8d0;
_ZN2nn3hid6system6detail22EnableAppletToGetInputERKNS_6applet20AppletResourceUserIdEb = __sdk_start + 0x4ae950;
_ZN2nn3hid6system6detail25SetAruidValidForVibrationERKNS_6applet20AppletResourceUserIdEb = __sdk_start + 0x4ae9d0;
_ZN2nn3hid6system6detail30EnableAppletToGetSixAxisSensorERKNS_6applet20AppletResourceUserIdEb = __sdk_start + 0x4aea50;
_ZN2nn3hid6system6detail25EnableAppletToGetPadInputERKNS_6applet20AppletResourceUserIdEb = __sdk_start + 0x4aead0;
_ZN2nn3hid6system6detail28EnableAppletToGetTouchScreenERKNS_6applet20AppletResourceUserIdEb = __sdk_start + 0x4aeb50;
_ZN2nn3hid6system6detail22InitializeAudioControlEv = __sdk_start + 0x4aebd0;
_ZN2nn3hid6system6detail32BindAudioControlStateChangeEventEPNS_2os15SystemEventTypeENS3_14EventClearModeE = __sdk_start + 0x4aec40;
_ZN2nn3hid6system6detail20FinalizeAudioControlEv = __sdk_start + 0x4aecf0;
_ZN2nn3hid6system6detail21GetAudioControlStatesEPiPNS1_17AudioControlStateEi = __sdk_start + 0x4aed60;
_ZN2nn3hid6system6detail22BindCaptureButtonEventEPNS_2os15SystemEventTypeENS3_14EventClearModeE = __sdk_start + 0x4aee20;
_ZN2nn3hid6system6detail23InitializeCaptureButtonEv = __sdk_start + 0x4aeed0;
_ZN2nn3hid6system6detail21FinalizeCaptureButtonEv = __sdk_start + 0x4aef90;
_ZN2nn3hid6system6detail22GetCaptureButtonStatesEPiPNS1_18CaptureButtonStateEi = __sdk_start + 0x4af030;
_ZN2nn3hid6system6detail18EnableHandheldHidsEv = __sdk_start + 0x4af2f0;
_ZN2nn3hid6system6detail19DisableHandheldHidsEv = __sdk_start + 0x4af360;
_ZN2nn3hid6system6detail21IsHandheldHidsEnabledEPb = __sdk_start + 0x4af3d0;
_ZN2nn3hid6system6detail30SetForceHandheldStyleVibrationEb = __sdk_start + 0x4af450;
_ZN2nn3hid6system6detail19BindHomeButtonEventEPNS_2os15SystemEventTypeENS3_14EventClearModeE = __sdk_start + 0x4af4d0;
_ZN2nn3hid6system6detail20InitializeHomeButtonEv = __sdk_start + 0x4af580;
_ZN2nn3hid6system6detail18FinalizeHomeButtonEv = __sdk_start + 0x4af640;
_ZN2nn3hid6system6detail19GetHomeButtonStatesEPiPNS1_15HomeButtonStateEi = __sdk_start + 0x4af6e0;
_ZN2nn3hid6system6detail24BindNfcDeviceUpdateEventEPNS_2os15SystemEventTypeENS3_14EventClearModeE = __sdk_start + 0x4af9a0;
_ZN2nn3hid6system6detail15GetNpadsWithNfcEPiPji = __sdk_start + 0x4afa50;
_ZN2nn3hid6system6detail34IsFirmwareAvailableForNotificationEPbNS1_11UniquePadIdE = __sdk_start + 0x4afaf0;
_ZN2nn3hid6system6detail30PrepareHidsForNotificationWakeEPNS1_11UniquePadIdEm = __sdk_start + 0x4afb90;
_ZN2nn3hid6system6detail40BindPlayReportControllerUsageUpdateEventEPNS_2os15SystemEventTypeENS3_14EventClearModeE = __sdk_start + 0x4afc00;
_ZN2nn3hid6system6detail29GetPlayReportControllerUsagesEPiPNS1_25PlayReportControllerUsageEi = __sdk_start + 0x4afcb0;
_ZN2nn3hid6system6detail41BindPlayReportRegisteredDeviceUpdateEventEPNS_2os15SystemEventTypeENS3_14EventClearModeE = __sdk_start + 0x4afd50;
_ZN2nn3hid6system6detail20BindSleepButtonEventEPNS_2os15SystemEventTypeENS3_14EventClearModeE = __sdk_start + 0x4afe00;
_ZN2nn3hid6system6detail21InitializeSleepButtonEv = __sdk_start + 0x4afeb0;
_ZN2nn3hid6system6detail19FinalizeSleepButtonEv = __sdk_start + 0x4aff70;
_ZN2nn3hid6system6detail20GetSleepButtonStatesEPiPNS1_16SleepButtonStateEi = __sdk_start + 0x4b0010;
_ZN2nn3hid6system23SetAppletResourceUserIdERKNS_6applet20AppletResourceUserIdE = __sdk_start + 0x4b02d0;
_ZN2nn3hid6system28RegisterAppletResourceUserIdERKNS_6applet20AppletResourceUserIdEb = __sdk_start + 0x4b0300;
_ZN2nn3hid6system30UnregisterAppletResourceUserIdERKNS_6applet20AppletResourceUserIdE = __sdk_start + 0x4b0330;
_ZN2nn3hid6system22EnableAppletToGetInputERKNS_6applet20AppletResourceUserIdEb = __sdk_start + 0x4b0360;
_ZN2nn3hid6system25SetAruidValidForVibrationERKNS_6applet20AppletResourceUserIdEb = __sdk_start + 0x4b0390;
_ZN2nn3hid6system30EnableAppletToGetSixAxisSensorERKNS_6applet20AppletResourceUserIdEb = __sdk_start + 0x4b03c0;
_ZN2nn3hid6system25EnableAppletToGetPadInputERKNS_6applet20AppletResourceUserIdEb = __sdk_start + 0x4b03f0;
_ZN2nn3hid6system28EnableAppletToGetTouchScreenERKNS_6applet20AppletResourceUserIdEb = __sdk_start + 0x4b0420;
_ZN2nn3hid6system22InitializeAudioControlEv = __sdk_start + 0x4b0450;
_ZN2nn3hid6system21GetAudioControlStatesEPNS1_17AudioControlStateEi = __sdk_start + 0x4b0480;
_ZN2nn3hid6system32BindAudioControlStateChangeEventEPNS_2os15SystemEventTypeENS2_14EventClearModeE = __sdk_start + 0x4b04c0;
_ZN2nn3hid6system22BindCaptureButtonEventEPNS_2os15SystemEventTypeENS2_14EventClearModeE = __sdk_start + 0x4b04f0;
_ZN2nn3hid6system23InitializeCaptureButtonEv = __sdk_start + 0x4b0520;
_ZN2nn3hid6system22GetCaptureButtonStatesEPNS1_18CaptureButtonStateEi = __sdk_start + 0x4b0550;
_ZN2nn3hid6system18EnableHandheldHidsEv = __sdk_start + 0x4b0590;
_ZN2nn3hid6system19DisableHandheldHidsEv = __sdk_start + 0x4b05c0;
_ZN2nn3hid6system21IsHandheldHidsEnabledEv = __sdk_start + 0x4b05f0;
_ZN2nn3hid6system30SetForceHandheldStyleVibrationEb = __sdk_start + 0x4b0630;
_ZN2nn3hid6system19BindHomeButtonEventEPNS_2os15SystemEventTypeENS2_14EventClearModeE = __sdk_start + 0x4b0660;
_ZN2nn3hid6system20InitializeHomeButtonEv = __sdk_start + 0x4b0690;
_ZN2nn3hid6system19GetHomeButtonStatesEPNS1_15HomeButtonStateEi = __sdk_start + 0x4b06c0;
_ZN2nn3hid6system24BindNfcDeviceUpdateEventEPNS_2os15SystemEventTypeENS2_14EventClearModeE = __sdk_start + 0x4b0700;
_ZN2nn3hid6system15GetNpadsWithNfcEPji = __sdk_start + 0x4b0730;
_ZN2nn3hid6system26GetXcdHandleForNpadWithNfcEPNS_3xcd12DeviceHandleEj = __sdk_start + 0x4b0770;
_ZN2nn3hid6system20BindNfcActivateEventEjPNS_2os15SystemEventTypeENS2_14EventClearModeE = __sdk_start + 0x4b07a0;
_ZN2nn3hid6system14IsNfcActivatedEj = __sdk_start + 0x4b07e0;
_ZN2nn3hid6system11ActivateNfcEj = __sdk_start + 0x4b0820;
_ZN2nn3hid6system11ActivateNfcEjNS_6applet20AppletResourceUserIdE = __sdk_start + 0x4b0890;
_ZN2nn3hid6system13DeactivateNfcEj = __sdk_start + 0x4b0900;
_ZN2nn3hid6system13DeactivateNfcEjNS_6applet20AppletResourceUserIdE = __sdk_start + 0x4b0950;
_ZN2nn3hid6system24GetXcdDeviceHandleForNfcEPNS_3xcd12DeviceHandleE = __sdk_start + 0x4b09a0;
_ZN2nn3hid6system34IsFirmwareAvailableForNotificationENS1_11UniquePadIdE = __sdk_start + 0x4b09b0;
_ZN2nn3hid6system30PrepareHidsForNotificationWakeEPNS1_11UniquePadIdEm = __sdk_start + 0x4b09f0;
_ZN2nn3hid6system40BindPlayReportControllerUsageUpdateEventEPNS_2os15SystemEventTypeENS2_14EventClearModeE = __sdk_start + 0x4b0a00;
_ZN2nn3hid6system29GetPlayReportControllerUsagesEPNS1_25PlayReportControllerUsageEi = __sdk_start + 0x4b0a30;
_ZN2nn3hid6system41BindPlayReportRegisteredDeviceUpdateEventEPNS_2os15SystemEventTypeENS2_14EventClearModeE = __sdk_start + 0x4b0a70;
_ZN2nn3hid6system23GetPlayReportDeviceTypeERNS_4util10BitFlagSetILi32ENS1_10DeviceTypeEEE = __sdk_start + 0x4b0aa0;
_ZN2nn3hid6system20BindSleepButtonEventEPNS_2os15SystemEventTypeENS2_14EventClearModeE = __sdk_start + 0x4b0b30;
_ZN2nn3hid6system21InitializeSleepButtonEv = __sdk_start + 0x4b0b60;
_ZN2nn3hid6system20GetSleepButtonStatesEPNS1_16SleepButtonStateEi = __sdk_start + 0x4b0b90;
_ZN2nn3hid6server20CreateHidServerProxyEPNS_2sf13SharedPointerINS0_10IHidServerEEE = __sdk_start + 0x4b0bd0;
_ZN2nn3hid6server25CreateHidDebugServerProxyEPNS_2sf13SharedPointerINS0_15IHidDebugServerEEE = __sdk_start + 0x4b4f50;
_ZN2nn3hid6server26CreateHidSystemServerProxyEPNS_2sf13SharedPointerINS0_16IHidSystemServerEEE = __sdk_start + 0x4b7c50;
_ZN2nn3hid6detail25ShowControllerSupportCoreEPNS0_27ControllerSupportResultInfoERKNS0_20ControllerSupportArgERKNS0_6system27ControllerSupportArgPrivateE = __sdk_start + 0x4bf0d0;
_ZN2nn3hid6detail32ShowControllerFirmwareUpdateCoreERKNS0_27ControllerFirmwareUpdateArgERKNS0_6system27ControllerSupportArgPrivateE = __sdk_start + 0x4bf200;
_ZN2nn3hid6detail30ShowControllerKeyRemappingCoreERKNS0_6system25ControllerKeyRemappingArgERKNS2_27ControllerSupportArgPrivateE = __sdk_start + 0x4bf310;
_ZN2nn3hid21ShowControllerSupportERKNS0_20ControllerSupportArgE = __sdk_start + 0x4bf420;
_ZN2nn3hid21ShowControllerSupportEPNS0_27ControllerSupportResultInfoERKNS0_20ControllerSupportArgE = __sdk_start + 0x4bf480;
_ZN2nn3hid14SetExplainTextEPNS0_20ControllerSupportArgEPKcRKj = __sdk_start + 0x4bf4e0;
_ZN2nn3hid24ShowControllerStrapGuideEv = __sdk_start + 0x4bf570;
_ZN2nn3hid28ShowControllerFirmwareUpdateERKNS0_27ControllerFirmwareUpdateArgE = __sdk_start + 0x4bf5d0;
_ZN2nn3hid20ControllerSupportArg10SetDefaultEv = __sdk_start + 0x4bf624;
_ZN2nn3hid27ControllerFirmwareUpdateArg10SetDefaultEv = __sdk_start + 0x4bf658;
_ZN2nn3hid6system25ControllerKeyRemappingArg10SetDefaultEv = __sdk_start + 0x4bf660;
_ZN2nn3hid6system30ShowControllerSupportForSystemERKNS0_20ControllerSupportArgEb = __sdk_start + 0x4bf670;
_ZN2nn3hid6system30ShowControllerSupportForSystemEPNS0_27ControllerSupportResultInfoERKNS0_20ControllerSupportArgEb = __sdk_start + 0x4bf6d0;
_ZN2nn3hid6system37ShowControllerFirmwareUpdateForSystemERKNS0_27ControllerFirmwareUpdateArgENS1_23ControllerSupportCallerE = __sdk_start + 0x4bf740;
_ZN2nn3hid6system35ShowControllerKeyRemappingForSystemERKNS1_25ControllerKeyRemappingArgENS1_23ControllerSupportCallerE = __sdk_start + 0x4bf7a0;
_ZN2nn3hid37IsFirmwareUpdateNeededForNotificationEv = __sdk_start + 0x5d5540;
_ZN2nn3hid28ShowControllerFirmwareUpdateERKNS0_27ControllerFirmwareUpdateArgE = __sdk_start + 0x5d5550;
_ZN2nn3hid6server20CreateHidServerProxyEPNS_2sf13SharedPointerINS0_10IHidServerEEE = __sdk_start + 0x5da690;
_ZN2nn3hid7utility23GetAppletResourceUserIdEv = __sdk_start + 0x5da6a0;
_ZN2nn3hid6server25CreateHidDebugServerProxyEPNS_2sf13SharedPointerINS0_15IHidDebugServerEEE = __sdk_start + 0x5da6b0;
_ZN2nn3hid6detail20SharedMemoryAccessorC2Ev = __sdk_start + 0x5da6c0;
_ZN2nn3hid6detail20SharedMemoryAccessor33SetResultActivationUpperLimitOverENS_6ResultE = __sdk_start + 0x5da6d0;
_ZN2nn3hid6detail20SharedMemoryAccessor35SetResultDeactivationLowerLimitOverENS_6ResultE = __sdk_start + 0x5da6e0;
_ZN2nn3hid6detail20SharedMemoryAccessor23SetAppletResourceUserIdENS_6applet20AppletResourceUserIdE = __sdk_start + 0x5da6f0;
_ZN2nn3hid6detail20SharedMemoryAccessor8ActivateEv = __sdk_start + 0x5da700;
_ZN2nn3hid6detail20SharedMemoryAccessor10DeactivateEv = __sdk_start + 0x5da710;
_ZN2nn3hid6detail20SharedMemoryAccessorD2Ev = __sdk_start + 0x5da720;
_ZN2nn3hid6detail18NpadSessionManagerINS1_24NpadSharedMemoryAccessorEE10GetSessionEv = __sdk_start + 0x5da730;
_ZN2nn3hid6detail27GetNpadSharedMemoryAccessorEv = __sdk_start + 0x5da740;
_ZN2nn3hid6detail24NpadSharedMemoryAccessor28GetControlPadRestrictionTypeEj = __sdk_start + 0x5da760;
_ZN2nn3hid6detail24NpadSharedMemoryAccessor30IsControlPadRestrictionEnabledEj = __sdk_start + 0x5da770;
_ZN2nn3hid6detail24NpadSharedMemoryAccessor28SetControlPadRestrictionTypeENS_4util10BitFlagSetILi32ENS0_12NpadStyleTagEEENS0_25ControlPadRestrictionTypeE = __sdk_start + 0x5da780;
_ZN2nn3hid6detail24NpadSharedMemoryAccessor28GetControlPadRestrictionTypeENS_4util10BitFlagSetILi32ENS0_12NpadStyleTagEEE = __sdk_start + 0x5da790;
_ZN2nn3hid6detail24NpadSharedMemoryAccessor27EnableControlPadRestrictionERKNS_4util10BitFlagSetILi32ENS0_12NpadStyleTagEEEb = __sdk_start + 0x5da7a0;
_ZN2nn3hid6server18SharedMemoryHolderC1Ev = __sdk_start + 0x5da7b0;
_ZN2nn3hid6server18SharedMemoryHolder8FinalizeEv = __sdk_start + 0x5da7c0;
_ZN2nn3hid6server18SharedMemoryHolder6AttachEjb = __sdk_start + 0x5da7d0;
_ZN2nn3hid7utility30VerifyValidSixAxisSensorHandleERKNS0_19SixAxisSensorHandleE = __sdk_start + 0x5da7f0;
_ZN2nn3hid6detail22GetSixAxisSensorStatesEPiPNS0_18SixAxisSensorStateEiRKNS0_19SixAxisSensorHandleE = __sdk_start + 0x5da800;
_ZN2nn3hid7utility36GetSixAxisSensorHandleNpadStyleIndexERKNS0_19SixAxisSensorHandleE = __sdk_start + 0x5da810;
_ZN2nn3hid7utility32GetSixAxisSensorHandleNpadIdTypeERKNS0_19SixAxisSensorHandleE = __sdk_start + 0x5da820;
_ZN2nn3hid6detail22GetSixAxisSensorStatesEPiPNS0_18SixAxisSensorStateEiRKjNS_4util10BitFlagSetILi32ENS0_12NpadStyleTagEEE = __sdk_start + 0x5da830;
_ZN2nn3hid7utility38GetSixAxisSensorHandleSixAxisSensorIdxERKNS0_19SixAxisSensorHandleE = __sdk_start + 0x5da840;
_ZN2nn3hid6detail26GetSixAxisSensorLeftStatesEPiPNS0_18SixAxisSensorStateEiRKjNS_4util10BitFlagSetILi32ENS0_12NpadStyleTagEEE = __sdk_start + 0x5da850;
_ZN2nn3hid6detail27GetSixAxisSensorRightStatesEPiPNS0_18SixAxisSensorStateEiRKjNS_4util10BitFlagSetILi32ENS0_12NpadStyleTagEEE = __sdk_start + 0x5da860;
_ZN2nn3hid7utility32GetSixAxisSensorHandleIdxForNpadEPNS1_29SixAxisSensorHandleIdxForNpadERKNS0_19SixAxisSensorHandleE = __sdk_start + 0x5da870;
_ZN2nn3hid6detail57IsFirmwareUpdateAvailableForSixAxisSensorFromSharedMemoryEPbRKjRKNS0_7utility29SixAxisSensorHandleIdxForNpadE = __sdk_start + 0x5da880;
_ZN2nn3hid6detail50IsSixAxisSensorDeviceNewlyAssignedFromSharedMemoryEPbRKjRKNS0_7utility29SixAxisSensorHandleIdxForNpadE = __sdk_start + 0x5da890;
_ZN2nn3hid6detail19SendVibrationValuesEPKNS0_21VibrationDeviceHandleEPKNS0_14VibrationValueEi = __sdk_start + 0x5da960;
_ZN2nn3hid6detail30InitializeConsoleSixAxisSensorEv = __sdk_start + 0x5da970;
_ZN2nn3hid7utility29GetConsoleSixAxisSensorHandleEPNS0_26ConsoleSixAxisSensorHandleE = __sdk_start + 0x5da980;
_ZN2nn3hid6detail18StartSixAxisSensorERKNS0_26ConsoleSixAxisSensorHandleE = __sdk_start + 0x5da990;
_ZN2nn3hid6detail17StopSixAxisSensorERKNS0_26ConsoleSixAxisSensorHandleE = __sdk_start + 0x5da9a0;
_ZN2nn3hid6detail28InitializeSevenSixAxisSensorEPvm = __sdk_start + 0x5da9b0;
_ZN2nn3hid6detail26FinalizeSevenSixAxisSensorEv = __sdk_start + 0x5da9c0;
_ZN2nn3hid6detail23StartSevenSixAxisSensorEv = __sdk_start + 0x5da9d0;
_ZN2nn3hid6detail22StopSevenSixAxisSensorEv = __sdk_start + 0x5da9e0;
_ZN2nn3hid6detail27GetSevenSixAxisSensorStatesEPiPNS0_23SevenSixAxisSensorStateEi = __sdk_start + 0x5da9f0;
_ZN2nn3hid6detail26IsSevenSixAxisSensorAtRestEPb = __sdk_start + 0x5daa00;
_ZN2nn3hid6detail32ResetSevenSixAxisSensorTimestampEv = __sdk_start + 0x5daa10;
_ZN2nn3hid6detail35SetSevenSixAxisSensorFusionStrengthEf = __sdk_start + 0x5daa20;
_ZN2nn3hid6detail35GetSevenSixAxisSensorFusionStrengthEPf = __sdk_start + 0x5daa30;
_ZN2nn3hid6detail20GetSensorFusionErrorEPf = __sdk_start + 0x5daa40;
_ZN2nn3hid6detail11GetGyroBiasEPNS_4util6Float3E = __sdk_start + 0x5daa50;
_ZN2nn3hid6detail18InitializeDebugPadEv = __sdk_start + 0x5daa60;
_ZN2nn3hid6detail16GetDebugPadStateEPNS0_13DebugPadStateE = __sdk_start + 0x5daa70;
_ZN2nn3hid6detail17GetDebugPadStatesEPiPNS0_13DebugPadStateEi = __sdk_start + 0x5daa80;
_ZN2nn3hid6detail19InitializeDigitizerEv = __sdk_start + 0x5daa90;
_ZN2nn3hid6detail17GetDigitizerStateEPNS0_14DigitizerStateE = __sdk_start + 0x5daaa0;
_ZN2nn3hid6detail18GetDigitizerStatesEPiPNS0_14DigitizerStateEi = __sdk_start + 0x5daab0;
_ZN2nn3hid6detail17InitializeGestureEv = __sdk_start + 0x5daac0;
_ZN2nn3hid6detail16GetGestureStatesEPiPNS0_12GestureStateEi = __sdk_start + 0x5daad0;
_ZN2nn3hid6detail18InitializeKeyboardEv = __sdk_start + 0x5daae0;
_ZN2nn3hid6detail16GetKeyboardStateEPNS0_13KeyboardStateE = __sdk_start + 0x5daaf0;
_ZN2nn3hid6detail17GetKeyboardStatesEPiPNS0_13KeyboardStateEi = __sdk_start + 0x5dab00;
_ZN2nn3hid6detail24SendKeyboardLockKeyEventENS_4util10BitFlagSetILi32ENS0_20KeyboardLockKeyEventEEE = __sdk_start + 0x5dab10;
_ZN2nn3hid6detail15InitializeMouseEv = __sdk_start + 0x5dab20;
_ZN2nn3hid6detail13GetMouseStateEPNS0_10MouseStateE = __sdk_start + 0x5dab30;
_ZN2nn3hid6detail14GetMouseStatesEPiPNS0_10MouseStateEi = __sdk_start + 0x5dab40;
_ZN2nn3hid6detail37IsFirmwareUpdateNeededForNotificationEPb = __sdk_start + 0x5dab50;
_ZN2nn3hid6detail14InitializeNpadEv = __sdk_start + 0x5dab60;
_ZN2nn3hid6detail24SetSupportedNpadStyleSetENS_4util10BitFlagSetILi32ENS0_12NpadStyleTagEEE = __sdk_start + 0x5dab70;
_ZN2nn3hid6detail24GetSupportedNpadStyleSetEPNS_4util10BitFlagSetILi32ENS0_12NpadStyleTagEEE = __sdk_start + 0x5dab80;
_ZN2nn3hid6detail22SetSupportedNpadIdTypeEPKji = __sdk_start + 0x5dab90;
_ZN2nn3hid6detail27BindNpadStyleSetUpdateEventERKjPNS_2os15SystemEventTypeENS4_14EventClearModeE = __sdk_start + 0x5daba0;
_ZN2nn3hid6detail15GetNpadStyleSetEPNS_4util10BitFlagSetILi32ENS0_12NpadStyleTagEEERKj = __sdk_start + 0x5dabb0;
_ZN2nn3hid6detail14DisconnectNpadERKj = __sdk_start + 0x5dabc0;
_ZN2nn3hid6detail19GetPlayerLedPatternEPhRKj = __sdk_start + 0x5dabd0;
_ZN2nn3hid6detail44IsUnintendedHomeButtonInputProtectionEnabledEPbRKj = __sdk_start + 0x5dabe0;
_ZN2nn3hid6detail41EnableUnintendedHomeButtonInputProtectionERKjb = __sdk_start + 0x5dabf0;
_ZN2nn3hid6detail32SetNpadAnalogStickUseCenterClampEb = __sdk_start + 0x5dac00;
_ZN2nn3hid6detail30SetNpadCaptureButtonAssignmentENS_4util10BitFlagSetILi32ENS0_12NpadStyleTagEEENS3_ILi64ENS0_10NpadButtonEEE = __sdk_start + 0x5dac10;
_ZN2nn3hid6detail32ClearNpadCaptureButtonAssignmentEv = __sdk_start + 0x5dac20;
_ZN2nn3hid6detail22GetNpadControllerColorEPNS0_19NpadControllerColorERKj = __sdk_start + 0x5dac30;
_ZN2nn3hid6detail22GetNpadControllerColorEPNS0_19NpadControllerColorES3_RKj = __sdk_start + 0x5dac40;
_ZN2nn3hid6detail28SetControlPadRestrictionTypeENS_4util10BitFlagSetILi32ENS0_12NpadStyleTagEEENS0_25ControlPadRestrictionTypeE = __sdk_start + 0x5dac50;
_ZN2nn3hid6detail28GetControlPadRestrictionTypeENS_4util10BitFlagSetILi32ENS0_12NpadStyleTagEEEPNS0_25ControlPadRestrictionTypeE = __sdk_start + 0x5dac60;
_ZN2nn3hid6detail27EnableControlPadRestrictionERKNS_4util10BitFlagSetILi32ENS0_12NpadStyleTagEEEb = __sdk_start + 0x5dac70;
_ZN2nn3hid6detail13GetNpadStatesEPiPNS0_16NpadFullKeyStateEiRKj = __sdk_start + 0x5dac80;
_ZN2nn3hid6detail13GetNpadStatesEPiPNS0_17NpadHandheldStateEiRKj = __sdk_start + 0x5dac90;
_ZN2nn3hid6detail13GetNpadStatesEPiPNS0_21NpadHandheldLarkStateEiRKj = __sdk_start + 0x5daca0;
_ZN2nn3hid6detail20GetNpadJoyAssignmentEPNS0_21NpadJoyAssignmentModeERKj = __sdk_start + 0x5dacb0;
_ZN2nn3hid6detail30SetNpadJoyAssignmentModeSingleERKj = __sdk_start + 0x5dacc0;
_ZN2nn3hid6detail30SetNpadJoyAssignmentModeSingleERKjNS0_17NpadJoyDeviceTypeE = __sdk_start + 0x5dacd0;
_ZN2nn3hid6detail30SetNpadJoyAssignmentModeSingleEPbPjRKjNS0_17NpadJoyDeviceTypeE = __sdk_start + 0x5dace0;
_ZN2nn3hid6detail28SetNpadJoyAssignmentModeDualERKj = __sdk_start + 0x5dacf0;
_ZN2nn3hid6detail23MergeSingleJoyAsDualJoyERKjS3_ = __sdk_start + 0x5dad00;
_ZN2nn3hid6detail18SwapNpadAssignmentERKjS3_ = __sdk_start + 0x5dad10;
_ZN2nn3hid6detail18SetNpadJoyHoldTypeENS0_15NpadJoyHoldTypeE = __sdk_start + 0x5dad20;
_ZN2nn3hid6detail18GetNpadJoyHoldTypeEPNS0_15NpadJoyHoldTypeE = __sdk_start + 0x5dad30;
_ZN2nn3hid6detail21StartLrAssignmentModeEv = __sdk_start + 0x5dad40;
_ZN2nn3hid6detail20StopLrAssignmentModeEv = __sdk_start + 0x5dad50;
_ZN2nn3hid6detail29SetNpadHandheldActivationModeENS0_26NpadHandheldActivationModeE = __sdk_start + 0x5dad60;
_ZN2nn3hid6detail29GetNpadHandheldActivationModeEPNS0_26NpadHandheldActivationModeE = __sdk_start + 0x5dad70;
_ZN2nn3hid6detail24SetNpadCommunicationModeENS0_21NpadCommunicationModeE = __sdk_start + 0x5dad80;
_ZN2nn3hid6detail24GetNpadCommunicationModeEPNS0_21NpadCommunicationModeE = __sdk_start + 0x5dad90;
_ZN2nn3hid6detail28GetNpadOfHighestBatteryLevelEPjPKji = __sdk_start + 0x5dada0;
_ZN2nn3hid6detail13GetNpadStatesEPiPNS0_16NpadJoyDualStateEiRKj = __sdk_start + 0x5dadb0;
_ZN2nn3hid6detail13GetNpadStatesEPiPNS0_16NpadJoyLeftStateEiRKj = __sdk_start + 0x5dadc0;
_ZN2nn3hid6detail13GetNpadStatesEPiPNS0_17NpadJoyRightStateEiRKj = __sdk_start + 0x5dadd0;
_ZN2nn3hid6detail13GetNpadStatesEPiPNS0_11NpadGcStateEiRKj = __sdk_start + 0x5dade0;
_ZN2nn3hid6detail13GetNpadStatesEPiPNS0_14NpadLagerStateEiRKj = __sdk_start + 0x5dadf0;
_ZN2nn3hid6detail16GetNpadLagerTypeEPNS0_13NpadLagerTypeERKj = __sdk_start + 0x5dae00;
_ZN2nn3hid6detail13GetNpadStatesEPiPNS0_13NpadLarkStateEiRKj = __sdk_start + 0x5dae10;
_ZN2nn3hid6detail13GetNpadStatesEPiPNS0_14NpadLuciaStateEiRKj = __sdk_start + 0x5dae20;
_ZN2nn3hid6detail13GetNpadStatesEPiPNS0_14NpadPalmaStateEiRKj = __sdk_start + 0x5dae30;
_ZN2nn3hid6detail24GetPalmaConnectionHandleEPNS0_21PalmaConnectionHandleERKj = __sdk_start + 0x5dae40;
_ZN2nn3hid6detail15InitializePalmaERKNS0_21PalmaConnectionHandleE = __sdk_start + 0x5dae50;
_ZN2nn3hid6detail31BindPalmaOperationCompleteEventERKNS0_21PalmaConnectionHandleEPNS_2os15SystemEventTypeENS5_14EventClearModeE = __sdk_start + 0x5dae60;
_ZN2nn3hid6detail21GetPalmaOperationInfoEPNS0_18PalmaOperationInfoERKNS0_21PalmaConnectionHandleE = __sdk_start + 0x5dae70;
_ZN2nn3hid6detail17PlayPalmaActivityERKNS0_21PalmaConnectionHandleERKt = __sdk_start + 0x5dae80;
_ZN2nn3hid6detail18SetPalmaFrModeTypeERKNS0_21PalmaConnectionHandleERKNS0_15PalmaFrModeTypeE = __sdk_start + 0x5dae90;
_ZN2nn3hid6detail13ReadPalmaStepERKNS0_21PalmaConnectionHandleE = __sdk_start + 0x5daea0;
_ZN2nn3hid6detail15EnablePalmaStepERKNS0_21PalmaConnectionHandleEb = __sdk_start + 0x5daeb0;
_ZN2nn3hid6detail14ResetPalmaStepERKNS0_21PalmaConnectionHandleE = __sdk_start + 0x5daec0;
_ZN2nn3hid6detail27ReadPalmaApplicationSectionERKNS0_21PalmaConnectionHandleEim = __sdk_start + 0x5daed0;
_ZN2nn3hid6detail28WritePalmaApplicationSectionERKNS0_21PalmaConnectionHandleEimRKNS0_35PalmaApplicationSectionAccessBufferE = __sdk_start + 0x5daee0;
_ZN2nn3hid6detail19ReadPalmaUniqueCodeERKNS0_21PalmaConnectionHandleE = __sdk_start + 0x5daef0;
_ZN2nn3hid6detail25SetPalmaUniqueCodeInvalidERKNS0_21PalmaConnectionHandleE = __sdk_start + 0x5daf00;
_ZN2nn3hid6detail23WritePalmaActivityEntryERKNS0_21PalmaConnectionHandleERKtPKNS0_18PalmaActivityEntryE = __sdk_start + 0x5daf10;
_ZN2nn3hid6detail28WritePalmaRgbLedPatternEntryERKNS0_21PalmaConnectionHandleERKtPKvm = __sdk_start + 0x5daf20;
_ZN2nn3hid6detail19WritePalmaWaveEntryERKNS0_21PalmaConnectionHandleERKNS0_12PalmaWaveSetERKtPKvmm = __sdk_start + 0x5daf30;
_ZN2nn3hid6detail37SetPalmaDataBaseIdentificationVersionERKNS0_21PalmaConnectionHandleEi = __sdk_start + 0x5daf40;
_ZN2nn3hid6detail37GetPalmaDataBaseIdentificationVersionERKNS0_21PalmaConnectionHandleE = __sdk_start + 0x5daf50;
_ZN2nn3hid6detail19SuspendPalmaFeatureERKNS0_21PalmaConnectionHandleERKNS_4util10BitFlagSetILi32ENS0_12PalmaFeatureEEE = __sdk_start + 0x5daf60;
_ZN2nn3hid6detail16ReadPalmaPlayLogERKNS0_21PalmaConnectionHandleERKt = __sdk_start + 0x5daf70;
_ZN2nn3hid6detail17ResetPalmaPlayLogERKNS0_21PalmaConnectionHandleERKt = __sdk_start + 0x5daf80;
_ZN2nn3hid6detail27EnablePairedPalmaConnectionEv = __sdk_start + 0x5daf90;
_ZN2nn3hid6detail28DisablePairedPalmaConnectionEv = __sdk_start + 0x5dafa0;
_ZN2nn3hid6detail24EnableAnyPalmaConnectionEv = __sdk_start + 0x5dafb0;
_ZN2nn3hid6detail25DisableAnyPalmaConnectionEv = __sdk_start + 0x5dafc0;
_ZN2nn3hid6detail9PairPalmaERKNS0_21PalmaConnectionHandleE = __sdk_start + 0x5dafd0;
_ZN2nn3hid6detail20EnablePalmaBoostModeEb = __sdk_start + 0x5dafe0;
_ZN2nn3hid6detail25CancelWritePalmaWaveEntryERKNS0_21PalmaConnectionHandleE = __sdk_start + 0x5daff0;
_ZN2nn3hid6detail24GetPalmaBluetoothAddressEPNS_9bluetooth7AddressERKNS0_21PalmaConnectionHandleE = __sdk_start + 0x5db000;
_ZN2nn3hid6detail28SetDisallowedPalmaConnectionEPKNS_9bluetooth7AddressEi = __sdk_start + 0x5db010;
_ZN2nn3hid7utility22GetSixAxisSensorHandleEPNS0_19SixAxisSensorHandleEPiijNS_4util10BitFlagSetILi32ENS0_12NpadStyleTagEEE = __sdk_start + 0x5db020;
_ZN2nn3hid6detail18StartSixAxisSensorERKNS0_19SixAxisSensorHandleE = __sdk_start + 0x5db030;
_ZN2nn3hid6detail17StopSixAxisSensorERKNS0_19SixAxisSensorHandleE = __sdk_start + 0x5db040;
_ZN2nn3hid6detail28IsSixAxisSensorFusionEnabledEPbRKNS0_19SixAxisSensorHandleE = __sdk_start + 0x5db050;
_ZN2nn3hid6detail25EnableSixAxisSensorFusionERKNS0_19SixAxisSensorHandleEb = __sdk_start + 0x5db060;
_ZN2nn3hid6detail32SetSixAxisSensorFusionParametersERKNS0_19SixAxisSensorHandleEff = __sdk_start + 0x5db070;
_ZN2nn3hid6detail32GetSixAxisSensorFusionParametersEPfS2_RKNS0_19SixAxisSensorHandleE = __sdk_start + 0x5db080;
_ZN2nn3hid6detail34ResetSixAxisSensorFusionParametersERKNS0_19SixAxisSensorHandleE = __sdk_start + 0x5db090;
_ZN2nn3hid6detail30EnableSixAxisSensorPassthroughERKNS0_19SixAxisSensorHandleEb = __sdk_start + 0x5db0a0;
_ZN2nn3hid6detail33IsSixAxisSensorPassthroughEnabledEPbRKNS0_19SixAxisSensorHandleE = __sdk_start + 0x5db0b0;
_ZN2nn3hid6detail25SetGyroscopeZeroDriftModeENS0_19SixAxisSensorHandleENS0_22GyroscopeZeroDriftModeE = __sdk_start + 0x5db0c0;
_ZN2nn3hid6detail25GetGyroscopeZeroDriftModeEPNS0_22GyroscopeZeroDriftModeENS0_19SixAxisSensorHandleE = __sdk_start + 0x5db0d0;
_ZN2nn3hid6detail21GetSixAxisSensorStateEPNS0_18SixAxisSensorStateERKNS0_19SixAxisSensorHandleE = __sdk_start + 0x5db0e0;
_ZN2nn3hid6detail21IsSixAxisSensorAtRestEPbRKNS0_19SixAxisSensorHandleE = __sdk_start + 0x5db0f0;
_ZN2nn3hid6detail41IsFirmwareUpdateAvailableForSixAxisSensorEPbRKNS0_19SixAxisSensorHandleE = __sdk_start + 0x5db100;
_ZN2nn3hid6detail38StoreSixAxisSensorCalibrationParameterERKNS0_19SixAxisSensorHandleERKNS0_33SixAxisSensorCalibrationParameterE = __sdk_start + 0x5db110;
_ZN2nn3hid6detail37LoadSixAxisSensorCalibrationParameterEPNS0_33SixAxisSensorCalibrationParameterERKNS0_19SixAxisSensorHandleE = __sdk_start + 0x5db120;
_ZN2nn3hid6detail29GetSixAxisSensorIcInformationEPNS0_26SixAxisSensorIcInformationERKNS0_19SixAxisSensorHandleE = __sdk_start + 0x5db130;
_ZN2nn3hid6detail34IsSixAxisSensorDeviceNewlyAssignedEPbRKNS0_19SixAxisSensorHandleE = __sdk_start + 0x5db140;
_ZN2nn3hid6detail39ResetIsSixAxisSensorDeviceNewlyAssignedERKNS0_19SixAxisSensorHandleE = __sdk_start + 0x5db150;
_ZN2nn3hid6detail21InitializeTouchScreenEv = __sdk_start + 0x5db160;
_ZN2nn3hid6detail19GetTouchScreenStateILm1EEENS_6ResultEPNS0_16TouchScreenStateIXT_EEE = __sdk_start + 0x5db170;
_ZN2nn3hid6detail19GetTouchScreenStateILm2EEENS_6ResultEPNS0_16TouchScreenStateIXT_EEE = __sdk_start + 0x5db180;
_ZN2nn3hid6detail19GetTouchScreenStateILm3EEENS_6ResultEPNS0_16TouchScreenStateIXT_EEE = __sdk_start + 0x5db190;
_ZN2nn3hid6detail19GetTouchScreenStateILm4EEENS_6ResultEPNS0_16TouchScreenStateIXT_EEE = __sdk_start + 0x5db1a0;
_ZN2nn3hid6detail19GetTouchScreenStateILm5EEENS_6ResultEPNS0_16TouchScreenStateIXT_EEE = __sdk_start + 0x5db1b0;
_ZN2nn3hid6detail19GetTouchScreenStateILm6EEENS_6ResultEPNS0_16TouchScreenStateIXT_EEE = __sdk_start + 0x5db1c0;
_ZN2nn3hid6detail19GetTouchScreenStateILm7EEENS_6ResultEPNS0_16TouchScreenStateIXT_EEE = __sdk_start + 0x5db1d0;
_ZN2nn3hid6detail19GetTouchScreenStateILm8EEENS_6ResultEPNS0_16TouchScreenStateIXT_EEE = __sdk_start + 0x5db1e0;
_ZN2nn3hid6detail19GetTouchScreenStateILm9EEENS_6ResultEPNS0_16TouchScreenStateIXT_EEE = __sdk_start + 0x5db1f0;
_ZN2nn3hid6detail19GetTouchScreenStateILm10EEENS_6ResultEPNS0_16TouchScreenStateIXT_EEE = __sdk_start + 0x5db200;
_ZN2nn3hid6detail19GetTouchScreenStateILm11EEENS_6ResultEPNS0_16TouchScreenStateIXT_EEE = __sdk_start + 0x5db210;
_ZN2nn3hid6detail19GetTouchScreenStateILm12EEENS_6ResultEPNS0_16TouchScreenStateIXT_EEE = __sdk_start + 0x5db220;
_ZN2nn3hid6detail19GetTouchScreenStateILm13EEENS_6ResultEPNS0_16TouchScreenStateIXT_EEE = __sdk_start + 0x5db230;
_ZN2nn3hid6detail19GetTouchScreenStateILm14EEENS_6ResultEPNS0_16TouchScreenStateIXT_EEE = __sdk_start + 0x5db240;
_ZN2nn3hid6detail19GetTouchScreenStateILm15EEENS_6ResultEPNS0_16TouchScreenStateIXT_EEE = __sdk_start + 0x5db250;
_ZN2nn3hid6detail19GetTouchScreenStateILm16EEENS_6ResultEPNS0_16TouchScreenStateIXT_EEE = __sdk_start + 0x5db260;
_ZN2nn3hid6detail20GetTouchScreenStatesILm1EEENS_6ResultEPiPNS0_16TouchScreenStateIXT_EEEi = __sdk_start + 0x5db270;
_ZN2nn3hid6detail20GetTouchScreenStatesILm2EEENS_6ResultEPiPNS0_16TouchScreenStateIXT_EEEi = __sdk_start + 0x5db280;
_ZN2nn3hid6detail20GetTouchScreenStatesILm3EEENS_6ResultEPiPNS0_16TouchScreenStateIXT_EEEi = __sdk_start + 0x5db290;
_ZN2nn3hid6detail20GetTouchScreenStatesILm4EEENS_6ResultEPiPNS0_16TouchScreenStateIXT_EEEi = __sdk_start + 0x5db2a0;
_ZN2nn3hid6detail20GetTouchScreenStatesILm5EEENS_6ResultEPiPNS0_16TouchScreenStateIXT_EEEi = __sdk_start + 0x5db2b0;
_ZN2nn3hid6detail20GetTouchScreenStatesILm6EEENS_6ResultEPiPNS0_16TouchScreenStateIXT_EEEi = __sdk_start + 0x5db2c0;
_ZN2nn3hid6detail20GetTouchScreenStatesILm7EEENS_6ResultEPiPNS0_16TouchScreenStateIXT_EEEi = __sdk_start + 0x5db2d0;
_ZN2nn3hid6detail20GetTouchScreenStatesILm8EEENS_6ResultEPiPNS0_16TouchScreenStateIXT_EEEi = __sdk_start + 0x5db2e0;
_ZN2nn3hid6detail20GetTouchScreenStatesILm9EEENS_6ResultEPiPNS0_16TouchScreenStateIXT_EEEi = __sdk_start + 0x5db2f0;
_ZN2nn3hid6detail20GetTouchScreenStatesILm10EEENS_6ResultEPiPNS0_16TouchScreenStateIXT_EEEi = __sdk_start + 0x5db300;
_ZN2nn3hid6detail20GetTouchScreenStatesILm11EEENS_6ResultEPiPNS0_16TouchScreenStateIXT_EEEi = __sdk_start + 0x5db310;
_ZN2nn3hid6detail20GetTouchScreenStatesILm12EEENS_6ResultEPiPNS0_16TouchScreenStateIXT_EEEi = __sdk_start + 0x5db320;
_ZN2nn3hid6detail20GetTouchScreenStatesILm13EEENS_6ResultEPiPNS0_16TouchScreenStateIXT_EEEi = __sdk_start + 0x5db330;
_ZN2nn3hid6detail20GetTouchScreenStatesILm14EEENS_6ResultEPiPNS0_16TouchScreenStateIXT_EEEi = __sdk_start + 0x5db340;
_ZN2nn3hid6detail20GetTouchScreenStatesILm15EEENS_6ResultEPiPNS0_16TouchScreenStateIXT_EEEi = __sdk_start + 0x5db350;
_ZN2nn3hid6detail20GetTouchScreenStatesILm16EEENS_6ResultEPiPNS0_16TouchScreenStateIXT_EEEi = __sdk_start + 0x5db360;
_ZN2nn3hid6detail27SetTouchScreenConfigurationERKNS0_29TouchScreenConfigurationForNxE = __sdk_start + 0x5db370;
_ZN2nn3hid6detail40EnableUsbFullKeyControllerForApplicationEb = __sdk_start + 0x5db380;
_ZN2nn3hid6detail43IsUsbFullKeyControllerEnabledForApplicationEPb = __sdk_start + 0x5db390;
_ZN2nn3hid6detail45IsUsbFullKeyControllerConnectedForApplicationEPbRKj = __sdk_start + 0x5db3a0;
_ZN2nn3hid6detail20IsVibrationPermittedEPb = __sdk_start + 0x5db3d0;
_ZN2nn3hid6detail27BeginPermitVibrationSessionEv = __sdk_start + 0x5db3e0;
_ZN2nn3hid6detail25EndPermitVibrationSessionEv = __sdk_start + 0x5db3f0;
_ZN2nn3hid7utility25GetVibrationDeviceHandlesEPNS0_21VibrationDeviceHandleEPiijNS_4util10BitFlagSetILi32ENS0_12NpadStyleTagEEE = __sdk_start + 0x5db400;
_ZN2nn3hid6detail25InitializeVibrationDeviceERKNS0_21VibrationDeviceHandleE = __sdk_start + 0x5db410;
_ZN2nn3hid6detail22GetVibrationDeviceInfoEPNS0_19VibrationDeviceInfoERKNS0_21VibrationDeviceHandleE = __sdk_start + 0x5db420;
_ZN2nn3hid6detail18SendVibrationValueERKNS0_21VibrationDeviceHandleERKNS0_14VibrationValueE = __sdk_start + 0x5db430;
_ZN2nn3hid6detail23GetActualVibrationValueEPNS0_14VibrationValueERKNS0_21VibrationDeviceHandleE = __sdk_start + 0x5db440;
_ZN2nn3hid6detail24IsVibrationDeviceMountedEPbRKNS0_21VibrationDeviceHandleE = __sdk_start + 0x5db450;
_ZN2nn3hid6detail18ParseVibrationFileEPNS0_17VibrationFileInfoEPNS1_30VibrationFileParserContextImplEPKvm = __sdk_start + 0x5db460;
_ZN2nn3hid6detail22RetrieveVibrationValueEPNS0_14VibrationValueEiPNS1_30VibrationFileParserContextImplE = __sdk_start + 0x5db470;
_ZN2nn3hid6detail26CalculateVibrationFileSizeERKNS0_23VibrationValueArrayInfoE = __sdk_start + 0x5db480;
_ZN2nn3hid6detail21GenerateVibrationFileEPmPhmRKNS0_23VibrationValueArrayInfoEPKNS0_14VibrationValueE = __sdk_start + 0x5db490;
_ZN2nn3hid6detail25SendVibrationGcErmCommandERKNS0_21VibrationDeviceHandleERKNS0_21VibrationGcErmCommandE = __sdk_start + 0x5db4a0;
_ZN2nn3hid6detail30GetActualVibrationGcErmCommandEPNS0_21VibrationGcErmCommandERKNS0_21VibrationDeviceHandleE = __sdk_start + 0x5db4b0;
_ZN2nn3hid13VibrationNodeC2Ev = __sdk_start + 0x5db4c0;
_ZN2nn3hid13VibrationNodeD2Ev = __sdk_start + 0x5db4d0;
_ZN2nn3hid23VibrationNodeConnection10DisconnectEv = __sdk_start + 0x5db510;
_ZN2nn3hid13VibrationNode16SyncSampleNumberEv = __sdk_start + 0x5db520;
_ZN2nn3hid6detail28FlushEnqueuedVibrationValuesEv = __sdk_start + 0x5db530;
_ZN2nn3hid23VibrationNodeConnection7ConnectEPNS0_13VibrationNodeES3_ = __sdk_start + 0x5db540;
_ZN2nn3hid18ParseVibrationFileEPNS0_17VibrationFileInfoEPNS0_26VibrationFileParserContextEPKvm = __sdk_start + 0x5db550;
_ZN2nn3hid13VibrationNode19SetCurrentVibrationERKNS0_14VibrationValueE = __sdk_start + 0x5db560;
_ZN2nn3hid15VibrationPlayer23SetVibrationFileAddressEPKvm = __sdk_start + 0x5db570;
_ZN2nn3hid22RetrieveVibrationValueEPNS0_14VibrationValueEiPNS0_26VibrationFileParserContextE = __sdk_start + 0x5db580;
_ZN2nn3hid14VibrationMixerC2Ev = __sdk_start + 0x5db590;
_ZN2nn3hid14VibrationMixerD2Ev = __sdk_start + 0x5db5a0;
_ZN2nn3hid6detail21EnqueueVibrationValueERKNS0_21VibrationDeviceHandleERKNS0_14VibrationValueE = __sdk_start + 0x5db5b0;
_ZN2nn3hid23GetActualVibrationValueEPNS0_14VibrationValueERKNS0_21VibrationDeviceHandleE = __sdk_start + 0x5db5c0;
_ZN2nn3hid22GetVibrationDeviceInfoEPNS0_19VibrationDeviceInfoERKNS0_21VibrationDeviceHandleE = __sdk_start + 0x5db5d0;
_ZN2nn3hid14VibrationMixer20OnNextSampleRequiredEPNS0_14VibrationValueEPNS_4util13IntrusiveListINS0_23VibrationNodeConnectionENS4_27IntrusiveListBaseNodeTraitsIS6_S6_EEEE = __sdk_start + 0x5db5e0;
_ZN2nn3hid6detail10GetXpadIdsEPiPNS0_11BasicXpadIdEi = __sdk_start + 0x5db5f0;
_ZN2nn3hid6detail14InitializeXpadERKNS0_11BasicXpadIdE = __sdk_start + 0x5db600;
_ZN2nn3hid6server26CreateHidSystemServerProxyEPNS_2sf13SharedPointerINS0_16IHidSystemServerEEE = __sdk_start + 0x5db7c0;
_ZN2nn3hid7utility37GetAppletResourceUserIdOfCallerAppletEPNS_6applet20AppletResourceUserIdE = __sdk_start + 0x5db7d0;
_ZN2nn3hid6system6detail19GetAnalogStickStateEPNS0_16AnalogStickStateENS1_11UniquePadIdENS1_19AnalogStickPositionE = __sdk_start + 0x5db7e0;
_ZN2nn3hid6system6detail26IsAnalogStickButtonPressedEPbNS1_11UniquePadIdENS1_19AnalogStickPositionE = __sdk_start + 0x5db7f0;
_ZN2nn3hid6system6detail33StartAnalogStickManualCalibrationENS1_11UniquePadIdENS1_19AnalogStickPositionE = __sdk_start + 0x5db800;
_ZN2nn3hid6system6detail36GetAnalogStickManualCalibrationStageEPNS1_33AnalogStickManualCalibrationStageENS1_11UniquePadIdENS1_19AnalogStickPositionE = __sdk_start + 0x5db810;
_ZN2nn3hid6system6detail45RetryCurrentAnalogStickManualCalibrationStageENS1_11UniquePadIdENS1_19AnalogStickPositionE = __sdk_start + 0x5db820;
_ZN2nn3hid6system6detail34CancelAnalogStickManualCalibrationENS1_11UniquePadIdENS1_19AnalogStickPositionE = __sdk_start + 0x5db830;
_ZN2nn3hid6system6detail33ResetAnalogStickManualCalibrationENS1_11UniquePadIdENS1_19AnalogStickPositionE = __sdk_start + 0x5db840;
_ZN2nn3hid6system6detail30IsAnalogStickInReleasePositionEPbNS1_11UniquePadIdENS1_19AnalogStickPositionE = __sdk_start + 0x5db850;
_ZN2nn3hid6system6detail28IsAnalogStickInCircumferenceEPbNS1_11UniquePadIdENS1_19AnalogStickPositionE = __sdk_start + 0x5db860;
_ZN2nn3hid6system6detail23IsButtonConfigSupportedEPbRKNS_9bluetooth7AddressE = __sdk_start + 0x5db870;
_ZN2nn3hid6system6detail31IsButtonConfigEmbeddedSupportedEPb = __sdk_start + 0x5db880;
_ZN2nn3hid6system6detail18DeleteButtonConfigERKNS_9bluetooth7AddressE = __sdk_start + 0x5db890;
_ZN2nn3hid6system6detail26DeleteButtonConfigEmbeddedEv = __sdk_start + 0x5db8a0;
_ZN2nn3hid6system6detail22SetButtonConfigEnabledEbRKNS_9bluetooth7AddressE = __sdk_start + 0x5db8b0;
_ZN2nn3hid6system6detail30SetButtonConfigEmbeddedEnabledEb = __sdk_start + 0x5db8c0;
_ZN2nn3hid6system6detail21IsButtonConfigEnabledEPbRKNS_9bluetooth7AddressE = __sdk_start + 0x5db8d0;
_ZN2nn3hid6system6detail29IsButtonConfigEmbeddedEnabledEPb = __sdk_start + 0x5db8e0;
_ZN2nn3hid6system6detail15SetButtonConfigERKNS1_20ButtonConfigEmbeddedE = __sdk_start + 0x5db8f0;
_ZN2nn3hid6system6detail15SetButtonConfigERKNS1_16ButtonConfigFullERKNS_9bluetooth7AddressE = __sdk_start + 0x5db900;
_ZN2nn3hid6system6detail15SetButtonConfigERKNS1_16ButtonConfigLeftERKNS_9bluetooth7AddressE = __sdk_start + 0x5db910;
_ZN2nn3hid6system6detail15SetButtonConfigERKNS1_17ButtonConfigRightERKNS_9bluetooth7AddressE = __sdk_start + 0x5db920;
_ZN2nn3hid6system6detail15GetButtonConfigEPNS1_20ButtonConfigEmbeddedE = __sdk_start + 0x5db930;
_ZN2nn3hid6system6detail15GetButtonConfigEPNS1_16ButtonConfigFullERKNS_9bluetooth7AddressE = __sdk_start + 0x5db940;
_ZN2nn3hid6system6detail15GetButtonConfigEPNS1_16ButtonConfigLeftERKNS_9bluetooth7AddressE = __sdk_start + 0x5db950;
_ZN2nn3hid6system6detail15GetButtonConfigEPNS1_17ButtonConfigRightERKNS_9bluetooth7AddressE = __sdk_start + 0x5db960;
_ZN2nn3hid6system6detail24InitializeFirmwareUpdateEv = __sdk_start + 0x5db970;
_ZN2nn3hid6system6detail19StartFirmwareUpdateEPNS1_26FirmwareUpdateDeviceHandleENS1_11UniquePadIdE = __sdk_start + 0x5db980;
_ZN2nn3hid6system6detail19AbortFirmwareUpdateEv = __sdk_start + 0x5db990;
_ZN2nn3hid6system6detail18GetFirmwareVersionEPNS1_15FirmwareVersionENS1_11UniquePadIdE = __sdk_start + 0x5db9a0;
_ZN2nn3hid6system6detail27GetAvailableFirmwareVersionEPNS1_15FirmwareVersionENS1_11UniquePadIdE = __sdk_start + 0x5db9b0;
_ZN2nn3hid6system6detail25IsFirmwareUpdateAvailableEPbNS1_11UniquePadIdE = __sdk_start + 0x5db9c0;
_ZN2nn3hid6system6detail27CheckFirmwareUpdateRequiredEPNS1_28FirmwareUpdateRequiredReasonENS1_11UniquePadIdE = __sdk_start + 0x5db9d0;
_ZN2nn3hid6system6detail22GetFirmwareUpdateStateEPNS1_19FirmwareUpdateStateERKNS1_26FirmwareUpdateDeviceHandleE = __sdk_start + 0x5db9e0;
_ZN2nn3hid6system6detail34SetFirmwareHotfixUpdateSkipEnabledEb = __sdk_start + 0x5db9f0;
_ZN2nn3hid6system6detail27InitializeUsbFirmwareUpdateEv = __sdk_start + 0x5dba00;
_ZN2nn3hid6system6detail25FinalizeUsbFirmwareUpdateEv = __sdk_start + 0x5dba10;
_ZN2nn3hid6system6detail30CheckUsbFirmwareUpdateRequiredEPNS1_28FirmwareUpdateRequiredReasonE = __sdk_start + 0x5dba20;
_ZN2nn3hid6system6detail22StartUsbFirmwareUpdateEv = __sdk_start + 0x5dba30;
_ZN2nn3hid6system6detail25GetUsbFirmwareUpdateStateEPNS1_19FirmwareUpdateStateEPiS5_ = __sdk_start + 0x5dba40;
_ZN2nn3hid6system6detail29IsCustomButtonConfigSupportedEPbRKNS1_11UniquePadIdE = __sdk_start + 0x5dba50;
_ZN2nn3hid6system6detail21IsDefaultButtonConfigEPbRKNS_9hidconfig20ButtonConfigEmbeddedE = __sdk_start + 0x5dba60;
_ZN2nn3hid6system6detail21IsDefaultButtonConfigEPbRKNS_9hidconfig16ButtonConfigFullE = __sdk_start + 0x5dba70;
_ZN2nn3hid6system6detail21IsDefaultButtonConfigEPbRKNS_9hidconfig16ButtonConfigLeftE = __sdk_start + 0x5dba80;
_ZN2nn3hid6system6detail21IsDefaultButtonConfigEPbRKNS_9hidconfig17ButtonConfigRightE = __sdk_start + 0x5dba90;
_ZN2nn3hid6system6detail34IsButtonConfigStorageEmbeddedEmptyEPbi = __sdk_start + 0x5dbaa0;
_ZN2nn3hid6system6detail30IsButtonConfigStorageFullEmptyEPbi = __sdk_start + 0x5dbab0;
_ZN2nn3hid6system6detail30IsButtonConfigStorageLeftEmptyEPbi = __sdk_start + 0x5dbac0;
_ZN2nn3hid6system6detail31IsButtonConfigStorageRightEmptyEPbi = __sdk_start + 0x5dbad0;
_ZN2nn3hid6system6detail22GetButtonConfigStorageEPNS_9hidconfig20ButtonConfigEmbeddedEPNS3_11StorageNameEi = __sdk_start + 0x5dbae0;
_ZN2nn3hid6system6detail22GetButtonConfigStorageEPNS_9hidconfig16ButtonConfigFullEPNS3_11StorageNameEi = __sdk_start + 0x5dbaf0;
_ZN2nn3hid6system6detail22GetButtonConfigStorageEPNS_9hidconfig16ButtonConfigLeftEPNS3_11StorageNameEi = __sdk_start + 0x5dbb00;
_ZN2nn3hid6system6detail22GetButtonConfigStorageEPNS_9hidconfig17ButtonConfigRightEPNS3_11StorageNameEi = __sdk_start + 0x5dbb10;
_ZN2nn3hid6system6detail22SetButtonConfigStorageERKNS_9hidconfig20ButtonConfigEmbeddedERKNS3_11StorageNameEi = __sdk_start + 0x5dbb20;
_ZN2nn3hid6system6detail22SetButtonConfigStorageERKNS_9hidconfig16ButtonConfigFullERKNS3_11StorageNameEi = __sdk_start + 0x5dbb30;
_ZN2nn3hid6system6detail22SetButtonConfigStorageERKNS_9hidconfig16ButtonConfigLeftERKNS3_11StorageNameEi = __sdk_start + 0x5dbb40;
_ZN2nn3hid6system6detail22SetButtonConfigStorageERKNS_9hidconfig17ButtonConfigRightERKNS3_11StorageNameEi = __sdk_start + 0x5dbb50;
_ZN2nn3hid6system6detail33DeleteButtonConfigStorageEmbeddedEi = __sdk_start + 0x5dbb60;
_ZN2nn3hid6system6detail29DeleteButtonConfigStorageFullEi = __sdk_start + 0x5dbb70;
_ZN2nn3hid6system6detail29DeleteButtonConfigStorageLeftEi = __sdk_start + 0x5dbb80;
_ZN2nn3hid6system6detail30DeleteButtonConfigStorageRightEi = __sdk_start + 0x5dbb90;
_ZN2nn3hid6system6detail25IsUsingCustomButtonConfigEPbRKNS1_11UniquePadIdE = __sdk_start + 0x5dbba0;
_ZN2nn3hid6system6detail30IsAnyCustomButtonConfigEnabledEPb = __sdk_start + 0x5dbbb0;
_ZN2nn3hid6system6detail31SetAllCustomButtonConfigEnabledEb = __sdk_start + 0x5dbbc0;
_ZN2nn3hid6system6detail22SetDefaultButtonConfigERKNS1_11UniquePadIdE = __sdk_start + 0x5dbbd0;
_ZN2nn3hid6system6detail25SetAllDefaultButtonConfigEv = __sdk_start + 0x5dbbe0;
_ZN2nn3hid6system6detail15SetButtonConfigERKNS_9hidconfig20ButtonConfigEmbeddedERKNS1_11UniquePadIdE = __sdk_start + 0x5dbbf0;
_ZN2nn3hid6system6detail15SetButtonConfigERKNS_9hidconfig16ButtonConfigFullERKNS1_11UniquePadIdE = __sdk_start + 0x5dbc00;
_ZN2nn3hid6system6detail15SetButtonConfigERKNS_9hidconfig16ButtonConfigLeftERKNS1_11UniquePadIdE = __sdk_start + 0x5dbc10;
_ZN2nn3hid6system6detail15SetButtonConfigERKNS_9hidconfig17ButtonConfigRightERKNS1_11UniquePadIdE = __sdk_start + 0x5dbc20;
_ZN2nn3hid6system6detail15GetButtonConfigEPNS_9hidconfig20ButtonConfigEmbeddedERKNS1_11UniquePadIdE = __sdk_start + 0x5dbc30;
_ZN2nn3hid6system6detail15GetButtonConfigEPNS_9hidconfig16ButtonConfigFullERKNS1_11UniquePadIdE = __sdk_start + 0x5dbc40;
_ZN2nn3hid6system6detail15GetButtonConfigEPNS_9hidconfig16ButtonConfigLeftERKNS1_11UniquePadIdE = __sdk_start + 0x5dbc50;
_ZN2nn3hid6system6detail15GetButtonConfigEPNS_9hidconfig17ButtonConfigRightERKNS1_11UniquePadIdE = __sdk_start + 0x5dbc60;
_ZN2nn3hid6system6detail32BindJoyDetachOnBluetoothOffEventEPNS_2os15SystemEventTypeENS3_14EventClearModeE = __sdk_start + 0x5dbc70;
_ZN2nn3hid6system6detail22IsJoyAttachedOnAllRailEPb = __sdk_start + 0x5dbc80;
_ZN2nn3hid6system6detail21IsJoyConRailSupportedEPb = __sdk_start + 0x5dbc90;
_ZN2nn3hid6system6detail16EnableJoyConRailEv = __sdk_start + 0x5dbca0;
_ZN2nn3hid6system6detail17DisableJoyConRailEv = __sdk_start + 0x5dbcb0;
_ZN2nn3hid6system6detail19IsJoyConRailEnabledEPb = __sdk_start + 0x5dbcc0;
_ZN2nn3hid6system6detail24SendKeyboardLockKeyEventENS_4util10BitFlagSetILi32ENS1_20KeyboardLockKeyEventEEE = __sdk_start + 0x5dbcd0;
_ZN2nn3hid6system6detail22SetSystemKeyboardStateERKNS1_19SystemKeyboardStateE = __sdk_start + 0x5dbce0;
_ZN2nn3hid6system6detail24UnsetSystemKeyboardStateEv = __sdk_start + 0x5dbcf0;
_ZN2nn3hid6system6detail38GetNpadCaptureButtonAssignmentOfCallerEPiPNS1_31NpadCaptureButtonAssignmentTypeEi = __sdk_start + 0x5dbd00;
_ZN2nn3hid6system6detail30SetNpadPlayerLedBlinkingDeviceERKjRKNS_4util10BitFlagSetILi32ENS1_10DeviceTypeEEE = __sdk_start + 0x5dbd10;
_ZN2nn3hid6system6detail36IsHandheldButtonPressedOnConsoleModeEPb = __sdk_start + 0x5dbd20;
_ZN2nn3hid6system6detail27ApplyNpadSystemCommonPolicyEv = __sdk_start + 0x5dbd30;
_ZN2nn3hid6system6detail31ApplyNpadSystemCommonPolicyFullEv = __sdk_start + 0x5dbd40;
_ZN2nn3hid6system6detail27SetSupportedNpadStyleSetAllEv = __sdk_start + 0x5dbd50;
_ZN2nn3hid6system6detail32EnableAssigningSingleOnSlSrPressEv = __sdk_start + 0x5dbd60;
_ZN2nn3hid6system6detail33DisableAssigningSingleOnSlSrPressEv = __sdk_start + 0x5dbd70;
_ZN2nn3hid6system6detail27GetLastActiveNpadControllerEPj = __sdk_start + 0x5dbd80;
_ZN2nn3hid6system6detail21GetNpadSystemExtStyleEPNS1_18AppletFooterUiTypeEPNS1_21NpadSystemExtSubStyleERKj = __sdk_start + 0x5dbd90;
_ZN2nn3hid6system6detail24GetAppletDetailedUiTypesEPNS1_20AppletDetailedUiTypeERKj = __sdk_start + 0x5dbda0;
_ZN2nn3hid6system6detail21GetUniquePadsFromNpadEPiPNS1_11UniquePadIdEiRKj = __sdk_start + 0x5dbdb0;
_ZN2nn3hid6system6detail10HasBatteryEPbRKj = __sdk_start + 0x5dbdc0;
_ZN2nn3hid6system6detail10HasBatteryEPbS3_RKj = __sdk_start + 0x5dbdd0;
_ZN2nn3hid6system6detail20GetNpadInterfaceTypeEPhRKj = __sdk_start + 0x5dbde0;
_ZN2nn3hid6system6detail20GetNpadInterfaceTypeEPhS3_RKj = __sdk_start + 0x5dbdf0;
_ZN2nn3hid6system6detail23GetNpadFullKeyGripColorEPNS_4util8Unorm8x4ES5_RKj = __sdk_start + 0x5dbe00;
_ZN2nn3hid6system6detail38SetSupportedNpadStyleSetOfCallerAppletENS_4util10BitFlagSetILi32ENS0_12NpadStyleTagEEE = __sdk_start + 0x5dbe10;
_ZN2nn3hid6system6detail38GetSupportedNpadStyleSetOfCallerAppletEPNS_4util10BitFlagSetILi32ENS0_12NpadStyleTagEEE = __sdk_start + 0x5dbe20;
_ZN2nn3hid6system6detail24EnableNpadSystemExtStateEv = __sdk_start + 0x5dbe30;
_ZN2nn3hid6system6detail25DisableNpadSystemExtStateEv = __sdk_start + 0x5dbe40;
_ZN2nn3hid6system6detail30GetAbstractedPadIdDataFromNpadEPiPliRKj = __sdk_start + 0x5dbe50;
_ZN2nn3hid6system6detail25AttachAbstractedPadToNpadEPblRKj = __sdk_start + 0x5dbe60;
_ZN2nn3hid6system6detail22DetachAbstractedPadAllEv = __sdk_start + 0x5dbe70;
_ZN2nn3hid6system6detail28CheckAbstractedPadConnectionEl = __sdk_start + 0x5dbe80;
_ZN2nn3hid6detail17GetNpadDeviceTypeEPNS_4util10BitFlagSetILi32ENS0_6system10DeviceTypeEEERKj = __sdk_start + 0x5dbe90;
_ZN2nn3hid6detail16GetNpadPowerInfoEPNS0_6system9PowerInfoERKj = __sdk_start + 0x5dbea0;
_ZN2nn3hid6detail16GetNpadPowerInfoEPNS0_6system9PowerInfoES4_RKj = __sdk_start + 0x5dbeb0;
_ZN2nn3hid6detail20IsAbxyButtonOrientedEPbRKj = __sdk_start + 0x5dbec0;
_ZN2nn3hid6detail20IsSlSrButtonOrientedEPbRKj = __sdk_start + 0x5dbed0;
_ZN2nn3hid6detail28GetPlusMinusButtonCapabilityEPbS2_RKj = __sdk_start + 0x5dbee0;
_ZN2nn3hid6detail29IsDirectionalButtonsSupportedEPbRKj = __sdk_start + 0x5dbef0;
_ZN2nn3hid6detail26IsUnsupportedButtonPressedEPbRKjRKNS_4util10BitFlagSetILi32ENS0_12NpadStyleTagEEE = __sdk_start + 0x5dbf00;
_ZN2nn3hid6detail22GetAppletFooterUiTypesEPNS0_6system18AppletFooterUiTypeERKj = __sdk_start + 0x5dbf10;
_ZN2nn3hid6detail30GetAppletFooterUiAttributesSetEPNS_4util10BitFlagSetILi32ENS0_6system23AppletFooterUiAttributeEEERKj = __sdk_start + 0x5dbf20;
_ZN2nn3hid6detail13GetNpadStatesEPiPNS0_6system15NpadSystemStateEiRKj = __sdk_start + 0x5dbf30;
_ZN2nn3hid6detail13GetNpadStatesEPiPNS0_6system18NpadSystemExtStateEiRKj = __sdk_start + 0x5dbf40;
_ZN2nn3hid6system6detail20GetRegisteredDevicesEPiPNS1_16RegisteredDeviceEi = __sdk_start + 0x5dbf50;
_ZN2nn3hid6system6detail31GetConnectableRegisteredDevicesEPiPNS1_16RegisteredDeviceEi = __sdk_start + 0x5dbf60;
_ZN2nn3hid6system6detail33BindConnectionTriggerTimeoutEventEPNS_2os15SystemEventTypeENS3_14EventClearModeE = __sdk_start + 0x5dbf70;
_ZN2nn3hid6system6detail21SendConnectionTriggerENS_9bluetooth7AddressE = __sdk_start + 0x5dbf80;
_ZN2nn3hid6system6detail40SendConnectionTriggerWithoutTimeoutEventENS_9bluetooth7AddressE = __sdk_start + 0x5dbf90;
_ZN2nn3hid6system6detail23CancelConnectionTriggerERKNS_9bluetooth7AddressE = __sdk_start + 0x5dbfa0;
_ZN2nn3hid6system6detail45BindDeviceRegisteredEventForControllerSupportEPNS_2os15SystemEventTypeENS3_14EventClearModeE = __sdk_start + 0x5dbfb0;
_ZN2nn3hid6system6detail29GetAllowedBluetoothLinksCountEv = __sdk_start + 0x5dbfc0;
_ZN2nn3hid6system6detail27SetTouchScreenMagnificationEffff = __sdk_start + 0x5dbfd0;
_ZN2nn3hid6system6detail34SetTouchScreenDefaultConfigurationERKNS0_29TouchScreenConfigurationForNxE = __sdk_start + 0x5dbfe0;
_ZN2nn3hid6system6detail34GetTouchScreenDefaultConfigurationEPNS0_29TouchScreenConfigurationForNxE = __sdk_start + 0x5dbff0;
_ZN2nn3hid6system6detail29GetTouchScreenFirmwareVersionEPNS1_15FirmwareVersionE = __sdk_start + 0x5dc000;
_ZN2nn3hid6system6detail28BindUniquePadConnectionEventEPNS_2os15SystemEventTypeENS3_14EventClearModeE = __sdk_start + 0x5dc010;
_ZN2nn3hid6system6detail14ListUniquePadsEPiPNS1_11UniquePadIdEi = __sdk_start + 0x5dc020;
_ZN2nn3hid6system6detail16GetUniquePadTypeEPNS1_13UniquePadTypeENS1_11UniquePadIdE = __sdk_start + 0x5dc030;
_ZN2nn3hid6system6detail21GetUniquePadInterfaceEPNS1_18UniquePadInterfaceENS1_11UniquePadIdE = __sdk_start + 0x5dc040;
_ZN2nn3hid6system6detail28GetUniquePadControllerNumberEPiNS1_11UniquePadIdE = __sdk_start + 0x5dc050;
_ZN2nn3hid6system6detail24GetUniquePadSerialNumberEPNS1_21UniquePadSerialNumberENS1_11UniquePadIdE = __sdk_start + 0x5dc060;
_ZN2nn3hid6system6detail28GetUniquePadBluetoothAddressEPNS_9bluetooth7AddressENS1_11UniquePadIdE = __sdk_start + 0x5dc070;
_ZN2nn3hid6system6detail19DisconnectUniquePadENS1_11UniquePadIdE = __sdk_start + 0x5dc080;
_ZN2nn3hid6system6detail24ListSixAxisSensorHandlesEPiPNS1_25UniqueSixAxisSensorHandleENS1_11UniquePadIdEi = __sdk_start + 0x5dc090;
_ZN2nn3hid6system6detail35GetConsoleUniqueSixAxisSensorHandleEPNS1_25UniqueSixAxisSensorHandleE = __sdk_start + 0x5dc0a0;
_ZN2nn3hid6system6detail39IsSixAxisSensorUserCalibrationSupportedEPbNS1_25UniqueSixAxisSensorHandleE = __sdk_start + 0x5dc0b0;
_ZN2nn3hid6system6detail35ResetSixAxisSensorCalibrationValuesENS1_25UniqueSixAxisSensorHandleE = __sdk_start + 0x5dc0c0;
_ZN2nn3hid6system6detail33StartSixAxisSensorUserCalibrationENS1_25UniqueSixAxisSensorHandleE = __sdk_start + 0x5dc0d0;
_ZN2nn3hid6system6detail36GetSixAxisSensorUserCalibrationStageEPNS1_33SixAxisSensorUserCalibrationStageENS1_25UniqueSixAxisSensorHandleE = __sdk_start + 0x5dc0e0;
_ZN2nn3hid6system6detail34CancelSixAxisSensorUserCalibrationENS1_25UniqueSixAxisSensorHandleE = __sdk_start + 0x5dc0f0;
_ZN2nn3hid6system6detail47IsSixAxisSensorAccurateUserCalibrationSupportedEPbRKNS1_25UniqueSixAxisSensorHandleE = __sdk_start + 0x5dc100;
_ZN2nn3hid6system6detail41StartSixAxisSensorAccurateUserCalibrationERKNS1_25UniqueSixAxisSensorHandleE = __sdk_start + 0x5dc110;
_ZN2nn3hid6system6detail42CancelSixAxisSensorAccurateUserCalibrationERKNS1_25UniqueSixAxisSensorHandleE = __sdk_start + 0x5dc120;
_ZN2nn3hid6system6detail44GetSixAxisSensorAccurateUserCalibrationStateEPNS1_41SixAxisSensorAccurateUserCalibrationStateERKNS1_25UniqueSixAxisSensorHandleE = __sdk_start + 0x5dc130;
_ZN2nn3hid6system6detail25SetNotificationLedPatternERKNS1_22NotificationLedPatternERKNS1_11UniquePadIdE = __sdk_start + 0x5dc140;
_ZN2nn3hid6system6detail36SetNotificationLedPatternWithTimeoutERKNS1_22NotificationLedPatternERKNS1_11UniquePadIdENS_8TimeSpanE = __sdk_start + 0x5dc150;
_ZN2nn3hid6system6detail22GetLastActiveUniquePadEPNS1_11UniquePadIdE = __sdk_start + 0x5dc160;
_ZN2nn3hid6system6detail21GetUniquePadButtonSetEPNS_4util10BitFlagSetILi64ENS1_15UniquePadButtonEEERKNS1_11UniquePadIdE = __sdk_start + 0x5dc170;
_ZN2nn3hid6system6detail17GetUniquePadColorEPNS1_15ControllerColorERKNS1_11UniquePadIdE = __sdk_start + 0x5dc180;
_ZN2nn3hid6system6detail23GetAppletDetailedUiTypeEPNS1_20AppletDetailedUiTypeERKNS1_11UniquePadIdE = __sdk_start + 0x5dc190;
_ZN2nn3hid6system6detail26EnableUsbFullKeyControllerEb = __sdk_start + 0x5dc1a0;
_ZN2nn3hid6system6detail29IsUsbFullKeyControllerEnabledEPb = __sdk_start + 0x5dc1b0;
_ZN2nn3hid6system6detail14IsUsbConnectedEPbNS1_11UniquePadIdE = __sdk_start + 0x5dc1c0;
_ZN2nn3hid6detail15PermitVibrationEb = __sdk_start + 0x5dc1d0;
_ZN2nn3hid6system6detail32SendVibrationNotificationPatternERKNS0_21VibrationDeviceHandleEi = __sdk_start + 0x5dc1e0;
_ZN2nn3hid6system6detail23SetAppletResourceUserIdERKNS_6applet20AppletResourceUserIdE = __sdk_start + 0x5dc1f0;
_ZN2nn3hid6system6detail28RegisterAppletResourceUserIdERKNS_6applet20AppletResourceUserIdEb = __sdk_start + 0x5dc200;
_ZN2nn3hid6system6detail30UnregisterAppletResourceUserIdERKNS_6applet20AppletResourceUserIdE = __sdk_start + 0x5dc210;
_ZN2nn3hid6system6detail22EnableAppletToGetInputERKNS_6applet20AppletResourceUserIdEb = __sdk_start + 0x5dc220;
_ZN2nn3hid6system6detail25SetAruidValidForVibrationERKNS_6applet20AppletResourceUserIdEb = __sdk_start + 0x5dc230;
_ZN2nn3hid6system6detail30EnableAppletToGetSixAxisSensorERKNS_6applet20AppletResourceUserIdEb = __sdk_start + 0x5dc240;
_ZN2nn3hid6system6detail25EnableAppletToGetPadInputERKNS_6applet20AppletResourceUserIdEb = __sdk_start + 0x5dc250;
_ZN2nn3hid6system6detail28EnableAppletToGetTouchScreenERKNS_6applet20AppletResourceUserIdEb = __sdk_start + 0x5dc260;
_ZN2nn3hid6system6detail22InitializeAudioControlEv = __sdk_start + 0x5dc270;
_ZN2nn3hid6system6detail21GetAudioControlStatesEPiPNS1_17AudioControlStateEi = __sdk_start + 0x5dc280;
_ZN2nn3hid6system6detail32BindAudioControlStateChangeEventEPNS_2os15SystemEventTypeENS3_14EventClearModeE = __sdk_start + 0x5dc290;
_ZN2nn3hid6system6detail22BindCaptureButtonEventEPNS_2os15SystemEventTypeENS3_14EventClearModeE = __sdk_start + 0x5dc2a0;
_ZN2nn3hid6system6detail23InitializeCaptureButtonEv = __sdk_start + 0x5dc2b0;
_ZN2nn3hid6system6detail22GetCaptureButtonStatesEPiPNS1_18CaptureButtonStateEi = __sdk_start + 0x5dc2c0;
_ZN2nn3hid6system6detail18EnableHandheldHidsEv = __sdk_start + 0x5dc2d0;
_ZN2nn3hid6system6detail19DisableHandheldHidsEv = __sdk_start + 0x5dc2e0;
_ZN2nn3hid6system6detail21IsHandheldHidsEnabledEPb = __sdk_start + 0x5dc2f0;
_ZN2nn3hid6system6detail30SetForceHandheldStyleVibrationEb = __sdk_start + 0x5dc300;
_ZN2nn3hid6system6detail19BindHomeButtonEventEPNS_2os15SystemEventTypeENS3_14EventClearModeE = __sdk_start + 0x5dc310;
_ZN2nn3hid6system6detail20InitializeHomeButtonEv = __sdk_start + 0x5dc320;
_ZN2nn3hid6system6detail19GetHomeButtonStatesEPiPNS1_15HomeButtonStateEi = __sdk_start + 0x5dc330;
_ZN2nn3hid6system6detail24BindNfcDeviceUpdateEventEPNS_2os15SystemEventTypeENS3_14EventClearModeE = __sdk_start + 0x5dc340;
_ZN2nn3hid6system6detail15GetNpadsWithNfcEPiPji = __sdk_start + 0x5dc350;
_ZN2nn3hid6system6detail26GetXcdHandleForNpadWithNfcEPNS_3xcd12DeviceHandleERj = __sdk_start + 0x5dc360;
_ZN2nn3hid6system6detail20BindNfcActivateEventERjPNS_2os15SystemEventTypeENS4_14EventClearModeE = __sdk_start + 0x5dc370;
_ZN2nn3hid6system6detail14IsNfcActivatedEPbRj = __sdk_start + 0x5dc380;
_ZN2nn3hid6system6detail11ActivateNfcERjNS_6applet20AppletResourceUserIdE = __sdk_start + 0x5dc390;
_ZN2nn3hid6system6detail13DeactivateNfcERjNS_6applet20AppletResourceUserIdE = __sdk_start + 0x5dc3a0;
_ZN2nn3hid6system6detail34IsFirmwareAvailableForNotificationEPbNS1_11UniquePadIdE = __sdk_start + 0x5dc3b0;
_ZN2nn3hid6system6detail30PrepareHidsForNotificationWakeEPNS1_11UniquePadIdEm = __sdk_start + 0x5dc3c0;
_ZN2nn3hid6system6detail40BindPlayReportControllerUsageUpdateEventEPNS_2os15SystemEventTypeENS3_14EventClearModeE = __sdk_start + 0x5dc3d0;
_ZN2nn3hid6system6detail29GetPlayReportControllerUsagesEPiPNS1_25PlayReportControllerUsageEi = __sdk_start + 0x5dc3e0;
_ZN2nn3hid6system6detail41BindPlayReportRegisteredDeviceUpdateEventEPNS_2os15SystemEventTypeENS3_14EventClearModeE = __sdk_start + 0x5dc3f0;
_ZN2nn3hid6system6detail20BindSleepButtonEventEPNS_2os15SystemEventTypeENS3_14EventClearModeE = __sdk_start + 0x5dc400;
_ZN2nn3hid6system6detail21InitializeSleepButtonEv = __sdk_start + 0x5dc410;
_ZN2nn3hid6system6detail20GetSleepButtonStatesEPiPNS1_16SleepButtonStateEi = __sdk_start + 0x5dc420;
_ZN2nn3hid24GetSupportedNpadStyleSetEv = __sdk_start + 0x5dcda0;
_ZN2nn3hid18GetNpadJoyHoldTypeEv = __sdk_start + 0x5dcdb0;
_ZN2nn3hid6detail25ShowControllerSupportCoreEPNS0_27ControllerSupportResultInfoERKNS0_20ControllerSupportArgERKNS0_6system27ControllerSupportArgPrivateE = __sdk_start + 0x5dcdc0;
_ZN2nn3hid20ControllerSupportArg10SetDefaultEv = __sdk_start + 0x5dcdd0;
_ZN2nn3hid6detail32ShowControllerFirmwareUpdateCoreERKNS0_27ControllerFirmwareUpdateArgERKNS0_6system27ControllerSupportArgPrivateE = __sdk_start + 0x5dcde0;
_ZN2nn3hid6detail30ShowControllerKeyRemappingCoreERKNS0_6system25ControllerKeyRemappingArgERKNS2_27ControllerSupportArgPrivateE = __sdk_start + 0x5dcdf0;
_ZN2nn3hid6NpadId3No1E = __sdk_start + 0xb3a734;
_ZN2nn3hid6NpadId3No2E = __sdk_start + 0xb3a738;
_ZN2nn3hid6NpadId3No3E = __sdk_start + 0xb3a73c;
_ZN2nn3hid6NpadId3No4E = __sdk_start + 0xb3a740;
_ZN2nn3hid6NpadId3No5E = __sdk_start + 0xb3a744;
_ZN2nn3hid6NpadId3No6E = __sdk_start + 0xb3a748;
_ZN2nn3hid6NpadId3No7E = __sdk_start + 0xb3a74c;
_ZN2nn3hid6NpadId3No8E = __sdk_start + 0xb3a750;
_ZN2nn3hid6NpadId8HandheldE = __sdk_start + 0xb3a754;
_ZN2nn3hid18VibrationConverter13ChunkDurationE = __sdk_start + 0xb3a758;
_ZN2nn3hid18VibrationConverter17DefaultSampleRateE = __sdk_start + 0xb3a760;
_ZN2nn3hid14VibrationMixer19CompressorParameter8MaxRatioE = __sdk_start + 0xb3a788;
_ZN2nn3hid13VibrationNode30DefaultVibrationSampleIntervalE = __sdk_start + 0xb3a7a8;
_ZN2nn3hid14KeyboardLayout20EnglishUnitedKingdomE = __sdk_start + 0xb3af20;
_ZN2nn3hid14KeyboardLayout19EnglishUnitedStatesE = __sdk_start + 0xb3af24;
_ZN2nn3hid14KeyboardLayout32EnglishUnitedStatesInternationalE = __sdk_start + 0xb3af28;
_ZN2nn3hid14KeyboardLayout6FrenchE = __sdk_start + 0xb3af2c;
_ZN2nn3hid14KeyboardLayout12FrenchCanadaE = __sdk_start + 0xb3af30;
_ZN2nn3hid14KeyboardLayout6GermanE = __sdk_start + 0xb3af34;
_ZN2nn3hid14KeyboardLayout7ItalianE = __sdk_start + 0xb3af38;
_ZN2nn3hid14KeyboardLayout8JapaneseE = __sdk_start + 0xb3af3c;
_ZN2nn3hid14KeyboardLayout10PortugueseE = __sdk_start + 0xb3af40;
_ZN2nn3hid14KeyboardLayout15RussianCyrillicE = __sdk_start + 0xb3af44;
_ZN2nn3hid14KeyboardLayout12RussianLatinE = __sdk_start + 0xb3af48;
_ZN2nn3hid14KeyboardLayout7SpanishE = __sdk_start + 0xb3af4c;
_ZN2nn3hid14KeyboardLayout19SpanishLatinAmericaE = __sdk_start + 0xb3af50;
_ZN2nn3hid14KeyboardLayout12KoreanHangulE = __sdk_start + 0xb3af54;
_ZN2nn3hid14KeyboardLayout11KoreanLatinE = __sdk_start + 0xb3af58;
_ZN2nn3hid14KeyboardLayout17ChineseSimplifiedE = __sdk_start + 0xb3af5c;
_ZN2nn3hid14KeyboardLayout24ChineseTraditionalZhuyinE = __sdk_start + 0xb3af60;
_ZN2nn3hid14KeyboardLayout25ChineseTraditionalCangjieE = __sdk_start + 0xb3af64;
_ZN2nn3hid14KeyboardLayout23ChineseTraditionalLatinE = __sdk_start + 0xb3af68;
_ZN2nn3hid6system12NpadSystemId5OtherE = __sdk_start + 0xb48f80;
_ZN2nn6socket4RecvEiPvmNS0_7MsgFlagE = __sdk_start + 0x140b80;
_ZN2nn6socket4RecvEiPvmi = __sdk_start + 0x140b90;
_ZN2nn6socket8RecvFromEiPvmNS0_7MsgFlagEPNS0_8SockAddrEPj = __sdk_start + 0x140ba0;
_ZN2nn6socket8RecvFromEiPvmiP8sockaddrPj = __sdk_start + 0x140bb0;
_ZN2nn6socket4SendEiPKvmNS0_7MsgFlagE = __sdk_start + 0x140bc0;
_ZN2nn6socket4SendEiPKvmi = __sdk_start + 0x140bd0;
_ZN2nn6socket6SendToEiPKvmNS0_7MsgFlagEPKNS0_8SockAddrEj = __sdk_start + 0x140be0;
_ZN2nn6socket6SendToEiPKvmiPK8sockaddrj = __sdk_start + 0x140bf0;
_ZN2nn6socket6AcceptEiPNS0_8SockAddrEPj = __sdk_start + 0x140c00;
_ZN2nn6socket6AcceptEiP8sockaddrPj = __sdk_start + 0x140c10;
_ZN2nn6socket4BindEiPKNS0_8SockAddrEj = __sdk_start + 0x140c20;
_ZN2nn6socket4BindEiPK8sockaddrj = __sdk_start + 0x140c30;
_ZN2nn6socket7ConnectEiPKNS0_8SockAddrEj = __sdk_start + 0x140c40;
_ZN2nn6socket7ConnectEiPK8sockaddrj = __sdk_start + 0x140c50;
_ZN2nn6socket11GetPeerNameEiPNS0_8SockAddrEPj = __sdk_start + 0x140c60;
_ZN2nn6socket11GetPeerNameEiP8sockaddrPj = __sdk_start + 0x140c70;
_ZN2nn6socket11GetSockNameEiPNS0_8SockAddrEPj = __sdk_start + 0x140c80;
_ZN2nn6socket11GetSockNameEiP8sockaddrPj = __sdk_start + 0x140c90;
_ZN2nn6socket10GetSockOptEiNS0_5LevelENS0_6OptionEPvPj = __sdk_start + 0x140ca0;
_ZN2nn6socket10GetSockOptEiiiPvPj = __sdk_start + 0x140cb0;
_ZN2nn6socket6ListenEii = __sdk_start + 0x140cc0;
_ZN2nn6socket10SetSockOptEiNS0_5LevelENS0_6OptionEPKvj = __sdk_start + 0x140cd0;
_ZN2nn6socket10SetSockOptEiiiPKvj = __sdk_start + 0x140ce0;
_ZN2nn6socket10SockAtMarkEi = __sdk_start + 0x140cf0;
_ZN2nn6socket8ShutdownEiNS0_14ShutdownMethodE = __sdk_start + 0x140d00;
_ZN2nn6socket8ShutdownEii = __sdk_start + 0x140d10;
_ZN2nn6socket18ShutdownAllSocketsEb = __sdk_start + 0x140d20;
_ZN2nn6socket6SocketENS0_6FamilyENS0_4TypeENS0_8ProtocolE = __sdk_start + 0x140d30;
_ZN2nn6socket6SocketEiii = __sdk_start + 0x140d40;
_ZN2nn6socket12SocketExemptENS0_6FamilyENS0_4TypeENS0_8ProtocolE = __sdk_start + 0x140d50;
_ZN2nn6socket12SocketExemptEiii = __sdk_start + 0x140d60;
_ZN2nn6socket5WriteEiPKvm = __sdk_start + 0x140d70;
_ZN2nn6socket4ReadEiPvm = __sdk_start + 0x140d80;
_ZN2nn6socket5CloseEi = __sdk_start + 0x140d90;
_ZN2nn6socket6SelectEiPNS0_5FdSetES2_S2_PNS0_7TimeValE = __sdk_start + 0x140da0;
_ZN2nn6socket6SelectEiP6fd_setS2_S2_P7timeval = __sdk_start + 0x140db0;
_ZN2nn6socket4PollEPNS0_6PollFdEmi = __sdk_start + 0x140dc0;
_ZN2nn6socket4PollEP6pollfdmi = __sdk_start + 0x140dd0;
_ZN2nn6socket5FcntlEiNS0_12FcntlCommandEz = __sdk_start + 0x140de0;
_ZN2nn6socket5FcntlEiiz = __sdk_start + 0x140e80;
_ZN2nn6socket7EventFdEmNS0_12EventFdFlagsE = __sdk_start + 0x140f20;
_ZN2nn6socket11EventFdReadEiPm = __sdk_start + 0x140f30;
_ZN2nn6socket12EventFdWriteEim = __sdk_start + 0x140f90;
_ZN2nn6socket8InetPtonENS0_6FamilyEPKcPv = __sdk_start + 0x140fc0;
_ZN2nn6socket8InetPtonEiPKcPv = __sdk_start + 0x140fd0;
_ZN2nn6socket8InetNtopENS0_6FamilyEPKvPcj = __sdk_start + 0x140fe0;
_ZN2nn6socket8InetNtopEiPKvPcj = __sdk_start + 0x140ff0;
_ZN2nn6socket8InetAtonEPKcPNS0_6InAddrE = __sdk_start + 0x141000;
_ZN2nn6socket8InetAtonEPKcP7in_addr = __sdk_start + 0x141010;
_ZN2nn6socket8InetNtoaENS0_6InAddrE = __sdk_start + 0x141020;
_ZN2nn6socket8InetNtoaE7in_addr = __sdk_start + 0x141030;
_ZN2nn6socket9InetHtonsEt = __sdk_start + 0x141040;
_ZN2nn6socket9InetHtonlEj = __sdk_start + 0x141050;
_ZN2nn6socket10InetHtonllEm = __sdk_start + 0x141060;
_ZN2nn6socket9InetNtohsEt = __sdk_start + 0x141070;
_ZN2nn6socket9InetNtohlEj = __sdk_start + 0x141080;
_ZN2nn6socket10InetNtohllEm = __sdk_start + 0x141090;
_ZN2nn6socket12GetLastErrorEv = __sdk_start + 0x1410a0;
_ZN2nn6socket12GetLastErrnoEv = __sdk_start + 0x1410b0;
_ZN2nn6socket12SetLastErrorENS0_5ErrnoE = __sdk_start + 0x1410c0;
_ZN2nn6socket12SetLastErrnoEi = __sdk_start + 0x1410d0;
_ZN2nn6socket7RecvMsgEiPNS0_6MsgHdrENS0_7MsgFlagE = __sdk_start + 0x1410e0;
_ZN2nn6socket7RecvMsgEiP6msghdri = __sdk_start + 0x1410f0;
_ZN2nn6socket8RecvMMsgEiPNS0_7MMsgHdrEmNS0_7MsgFlagEPNS_8TimeSpanE = __sdk_start + 0x141100;
_ZN2nn6socket8RecvMMsgEiP7mmsghdrmiPNS_8TimeSpanE = __sdk_start + 0x141110;
_ZN2nn6socket7SendMsgEiPKNS0_6MsgHdrENS0_7MsgFlagE = __sdk_start + 0x141120;
_ZN2nn6socket7SendMsgEiPK6msghdri = __sdk_start + 0x141130;
_ZN2nn6socket8SendMMsgEiPNS0_7MMsgHdrEmNS0_7MsgFlagE = __sdk_start + 0x141140;
_ZN2nn6socket8SendMMsgEiP7mmsghdrmi = __sdk_start + 0x141150;
_ZN2nn6socket5IoctlEiNS0_12IoctlCommandEPvm = __sdk_start + 0x141160;
_ZN2nn6socket5IoctlEijPvm = __sdk_start + 0x141170;
_ZN2nn6socket4OpenEPKcNS0_8OpenFlagE = __sdk_start + 0x141180;
_ZN2nn6socket4OpenEPKci = __sdk_start + 0x141190;
_ZN2nn6socket13IsInitializedEv = __sdk_start + 0x1411a0;
_ZN2nn6socket10InitializeEPvmmi = __sdk_start + 0x1411b0;
_ZN2nn6socket10InitializeERKNS0_6ConfigE = __sdk_start + 0x1411c0;
_ZN2nn6socket8FinalizeEv = __sdk_start + 0x1411d0;
_ZN2nn6socket11GetAddrInfoEPKcS2_PKNS0_8AddrInfoEPPS3_ = __sdk_start + 0x1411e0;
_ZN2nn6socket11GetAddrInfoEPKcS2_PK8addrinfoPPS3_ = __sdk_start + 0x1411f0;
_ZN2nn6socket11GetAddrInfoEPKcS2_PKNS0_8AddrInfoEPPS3_PKNS0_14ResolverOptionEm = __sdk_start + 0x141200;
_ZN2nn6socket11GetAddrInfoEPKcS2_PK8addrinfoPPS3_PKNS0_14ResolverOptionEm = __sdk_start + 0x141210;
_ZN2nn6socket12FreeAddrInfoEPNS0_8AddrInfoE = __sdk_start + 0x141220;
_ZN2nn6socket12FreeAddrInfoEP8addrinfo = __sdk_start + 0x141230;
_ZN2nn6socket11GetNameInfoEPKNS0_8SockAddrEjPcmS4_mNS0_12NameInfoFlagE = __sdk_start + 0x141240;
_ZN2nn6socket11GetNameInfoEPK8sockaddrjPcjS4_ji = __sdk_start + 0x141270;
_ZN2nn6socket11GetNameInfoEPKNS0_8SockAddrEjPcmS4_mNS0_12NameInfoFlagEPKNS0_14ResolverOptionEm = __sdk_start + 0x1412a0;
_ZN2nn6socket11GetNameInfoEPK8sockaddrjPcjS4_jiPKNS0_14ResolverOptionEm = __sdk_start + 0x1412b0;
_ZN2nn6socket16GetHostEntByNameEPKc = __sdk_start + 0x1412c0;
_ZN2nn6socket13GetHostByNameEPKc = __sdk_start + 0x1412d0;
_ZN2nn6socket16GetHostEntByNameEPKcPKNS0_14ResolverOptionEm = __sdk_start + 0x1412e0;
_ZN2nn6socket13GetHostByNameEPKcPKNS0_14ResolverOptionEm = __sdk_start + 0x1412f0;
_ZN2nn6socket16GetHostEntByAddrEPKvjNS0_6FamilyE = __sdk_start + 0x141300;
_ZN2nn6socket13GetHostByAddrEPKvji = __sdk_start + 0x141310;
_ZN2nn6socket16GetHostEntByAddrEPKvjNS0_6FamilyEPKNS0_14ResolverOptionEm = __sdk_start + 0x141320;
_ZN2nn6socket13GetHostByAddrEPKvjiPKNS0_14ResolverOptionEm = __sdk_start + 0x141330;
_ZN2nn6socket9GetHErrorEv = __sdk_start + 0x141340;
_ZN2nn6socket9GetHErrnoEv = __sdk_start + 0x141350;
_ZN2nn6socket9HStrErrorENS0_6HErrnoE = __sdk_start + 0x141360;
_ZN2nn6socket9HStrErrorEi = __sdk_start + 0x141370;
_ZN2nn6socket11GAIStrErrorENS0_7AiErrnoE = __sdk_start + 0x141380;
_ZN2nn6socket11GAIStrErrorEi = __sdk_start + 0x141390;
_ZN2nn6socket17ResolverGetOptionEPNS0_14ResolverOptionENS0_17ResolverOptionKeyE = __sdk_start + 0x1413a0;
_ZN2nn6socket17ResolverSetOptionERKNS0_14ResolverOptionE = __sdk_start + 0x1413b0;
_ZN2nn6socket6SysctlEPimPvPmS2_m = __sdk_start + 0x1413c0;
_ZN2nn6socket15DuplicateSocketEim = __sdk_start + 0x1413d0;
_ZN2nn6socket30RegisterResourceStatisticsNameEPKcmPNS0_16StatisticsMemoryE = __sdk_start + 0x1413e0;
_ZN2nn6socket30RegisterResourceStatisticsNameEPKcm = __sdk_start + 0x1413f0;
_ZN2nn6socket21RegisterForStatisticsEPKcmPNS0_16StatisticsMemoryE = __sdk_start + 0x141400;
_ZN2nn6socket21RegisterForStatisticsEPKcm = __sdk_start + 0x141410;
_ZN2nn6socket21GetResourceStatisticsENS0_14StatisticsTypeEPvmjPKcm = __sdk_start + 0x141420;
_ZN2nn6socket19GetSocketStatisticsEPvmNS0_20SocketStatisticsTypeE = __sdk_start + 0x141430;
_ZN2nn6socket17SetThreadCoreMaskEm = __sdk_start + 0x141450;
_ZN2nn6socket17GetThreadCoreMaskEv = __sdk_start + 0x141460;
_ZN2nn6socket8resolver10serializer20FreeAddrinfoContentsER8addrinfo = __sdk_start + 0x141b60;
_ZN2nn6socket8resolver10serializer13DNSSerializer6SizeOfINS0_8AddrInfoEEEmRKT_ = __sdk_start + 0x141bc8;
_ZN2nn6socket8resolver10serializer13DNSSerializer6SizeOfI8addrinfoEEmRKT_ = __sdk_start + 0x141cb8;
_ZN2nn6socket8resolver10serializer13DNSSerializer16ToBufferInternalINS0_8AddrInfoEEElPhmRKT_ = __sdk_start + 0x141da8;
_ZN2nn6socket8resolver10serializer13DNSSerializer8ToBufferINS0_8AddrInfoEEElPhmRKT_ = __sdk_start + 0x141fe0;
_ZN2nn6socket8resolver10serializer13DNSSerializer16ToBufferInternalI8addrinfoEElPhmRKT_ = __sdk_start + 0x142154;
_ZN2nn6socket8resolver10serializer13DNSSerializer8ToBufferI8addrinfoEElPhmRKT_ = __sdk_start + 0x14238c;
_ZN2nn6socket8resolver10serializer13DNSSerializer18FromBufferInternalINS0_8AddrInfoEEElRT_PKhm = __sdk_start + 0x142500;
_ZN2nn6socket8resolver10serializer13DNSSerializer10FromBufferINS0_8AddrInfoEEElRT_PKhm = __sdk_start + 0x14280c;
_ZN2nn6socket8resolver10serializer13DNSSerializer18FromBufferInternalI8addrinfoEElRT_PKhm = __sdk_start + 0x14296c;
_ZN2nn6socket8resolver10serializer13DNSSerializer10FromBufferI8addrinfoEElRT_PKhm = __sdk_start + 0x142c74;
_ZN2nn6socket8resolver10serializer13DNSSerializer6SizeOfIcEEmPKT_ = __sdk_start + 0x142dd4;
_ZN2nn6socket8resolver10serializer13DNSSerializer6SizeOfIcEEmPPKT_Rj = __sdk_start + 0x142dfc;
_ZN2nn6socket8resolver10serializer13DNSSerializer8ToBufferIcEElPhmPT_ = __sdk_start + 0x142ea0;
_ZN2nn6socket8resolver10serializer13DNSSerializer10FromBufferIcEElRPT_PKhm = __sdk_start + 0x142f64;
_ZN2nn6socket8resolver10serializer13DNSSerializer8ToBufferIcEElPhmPPT_ = __sdk_start + 0x143020;
_ZN2nn6socket8resolver10serializer13DNSSerializer10FromBufferIcEElRPPT_PKhm = __sdk_start + 0x143168;
_ZN2nn6socket8resolver10serializer19FreeHostentContentsERNS0_7HostEntE = __sdk_start + 0x1432b0;
_ZN2nn6socket8resolver10serializer19FreeHostentContentsER7hostent = __sdk_start + 0x143370;
_ZN2nn6socket8resolver10serializer13DNSSerializer6SizeOfINS0_7HostEntEEEmRKT_ = __sdk_start + 0x143428;
_ZN2nn6socket8resolver10serializer13DNSSerializer6SizeOfI7hostentEEmRKT_ = __sdk_start + 0x14349c;
_ZN2nn6socket8resolver10serializer13DNSSerializer10FromBufferINS0_7HostEntEEElRT_PKhm = __sdk_start + 0x143510;
_ZN2nn6socket8resolver10serializer13DNSSerializer10FromBufferI7hostentEElRT_PKhm = __sdk_start + 0x143634;
_ZN2nn6socket8resolver10serializer13DNSSerializer8ToBufferINS0_7HostEntEEElPhmRKT_ = __sdk_start + 0x143758;
_ZN2nn6socket8resolver10serializer13DNSSerializer8ToBufferI7hostentEElPhmRKT_ = __sdk_start + 0x1438e8;
_ZN2nn6socket8resolver10serializer13DNSSerializer6SizeOfINS0_6InAddrEEEmRKT_ = __sdk_start + 0x143a78;
_ZN2nn6socket8resolver10serializer13DNSSerializer6SizeOfI7in_addrEEmRKT_ = __sdk_start + 0x143a80;
_ZN2nn6socket8resolver10serializer13DNSSerializer6SizeOfINS0_6InAddrEEEmPPKT_Rj = __sdk_start + 0x143a88;
_ZN2nn6socket8resolver10serializer13DNSSerializer6SizeOfI7in_addrEEmPPKT_Rj = __sdk_start + 0x143ac0;
_ZN2nn6socket8resolver10serializer13DNSSerializer8ToBufferINS0_6InAddrEEElPhmRKT_ = __sdk_start + 0x143af8;
_ZN2nn6socket8resolver10serializer13DNSSerializer8ToBufferI7in_addrEElPhmRKT_ = __sdk_start + 0x143b58;
_ZN2nn6socket8resolver10serializer13DNSSerializer10FromBufferINS0_6InAddrEEElRT_PKhm = __sdk_start + 0x143bc8;
_ZN2nn6socket8resolver10serializer13DNSSerializer10FromBufferI7in_addrEElRT_PKhm = __sdk_start + 0x143c08;
_ZN2nn6socket8resolver10serializer13DNSSerializer8ToBufferINS0_6InAddrEEElPhmPPT_ = __sdk_start + 0x143c48;
_ZN2nn6socket8resolver10serializer13DNSSerializer8ToBufferI7in_addrEElPhmPPT_ = __sdk_start + 0x143db4;
_ZN2nn6socket8resolver10serializer13DNSSerializer10FromBufferINS0_6InAddrEEElRPPT_PKhm = __sdk_start + 0x143f10;
_ZN2nn6socket8resolver10serializer13DNSSerializer10FromBufferI7in_addrEElRPPT_PKhm = __sdk_start + 0x144094;
_ZN2nn6socket8resolver10serializer13DNSSerializer6SizeOfINS0_10SockAddrInEEEmRKT_ = __sdk_start + 0x144218;
_ZN2nn6socket8resolver10serializer13DNSSerializer6SizeOfI11sockaddr_inEEmRKT_ = __sdk_start + 0x144234;
_ZN2nn6socket8resolver10serializer13DNSSerializer8ToBufferINS0_10SockAddrInEEElPhmRKT_ = __sdk_start + 0x144250;
_ZN2nn6socket8resolver10serializer13DNSSerializer8ToBufferI11sockaddr_inEElPhmRKT_ = __sdk_start + 0x14434c;
_ZN2nn6socket8resolver10serializer13DNSSerializer10FromBufferINS0_10SockAddrInEEElRT_PKhm = __sdk_start + 0x144448;
_ZN2nn6socket8resolver10serializer13DNSSerializer10FromBufferI11sockaddr_inEElRT_PKhm = __sdk_start + 0x144524;
_ZN2nn6socket8resolver10serializer13DNSSerializer10FromBufferItEElRT_PKhm = __sdk_start + 0x144600;
_ZN2nn6socket8resolver10serializer13DNSSerializer8ToBufferItEElPhmRKT_ = __sdk_start + 0x14463c;
_ZN2nn6socket8resolver10serializer13DNSSerializer10FromBufferIjEElRT_PKhm = __sdk_start + 0x14469c;
_ZN2nn6socket8resolver10serializer13DNSSerializer8ToBufferIjEElPhmRKT_ = __sdk_start + 0x1446d8;
_ZN2nn6socket8resolver10serializer13DNSSerializer6SizeOfINS0_14ResolverOptionEEEmRKT_ = __sdk_start + 0x144738;
_ZN2nn6socket8resolver10serializer13DNSSerializer6SizeOfINS0_14ResolverOptionEEEmPKT_m = __sdk_start + 0x144754;
_ZN2nn6socket8resolver10serializer13DNSSerializer8ToBufferINS0_14ResolverOptionEEElPhmRKT_ = __sdk_start + 0x1447a4;
_ZN2nn6socket8resolver10serializer13DNSSerializer10FromBufferINS0_14ResolverOptionEEElRT_PKhm = __sdk_start + 0x1448c0;
_ZN2nn6socket8resolver10serializer13DNSSerializer8ToBufferINS0_14ResolverOptionEEElPhmPKT_m = __sdk_start + 0x144990;
_ZN2nn6socket8resolver10serializer13DNSSerializer10FromBufferINS0_14ResolverOptionEEElPT_mPKhmm = __sdk_start + 0x144a40;
_ZN2nn6socket8resolver10serializer13DNSSerializer22CheckToBufferArgumentsEPKhmmi = __sdk_start + 0x144b94;
_ZN2nn6socket8resolver10serializer13DNSSerializer12InternalHtonERKj = __sdk_start + 0x144bb0;
_ZN2nn6socket8resolver10serializer13DNSSerializer12InternalHtonERKt = __sdk_start + 0x144bb8;
_ZN2nn6socket8resolver10serializer13DNSSerializer12InternalNtohERKj = __sdk_start + 0x144bc0;
_ZN2nn6socket8resolver10serializer13DNSSerializer12InternalNtohERKt = __sdk_start + 0x144bc8;
_ZN2nn6socket8resolver10serializer13DNSSerializer6SizeOfI12sockaddr_in6EEmRKT_ = __sdk_start + 0x144bd0;
_ZN2nn6socket8resolver10serializer13DNSSerializer8ToBufferI12sockaddr_in6EElPhmRKT_ = __sdk_start + 0x144bd8;
_ZN2nn6socket8resolver10serializer13DNSSerializer10FromBufferI12sockaddr_in6EElRT_PKhm = __sdk_start + 0x144ce0;
_ZN2nn6socket6detail13IsInitializedEv = __sdk_start + 0x144de0;
_ZN2nn6socket6detail5AllocEm = __sdk_start + 0x144e10;
_ZN2nn6socket6detail12SetLastErrorENS0_5ErrnoE = __sdk_start + 0x144f10;
_ZN2nn6socket6detail12AllocAlignedEmm = __sdk_start + 0x144f50;
_ZN2nn6socket6detail6CallocEmm = __sdk_start + 0x145060;
_ZN2nn6socket6detail7ReallocEPvm = __sdk_start + 0x145170;
_ZN2nn6socket6detail4FreeEPv = __sdk_start + 0x145310;
_ZN2nn6socket6detail15HeapIsAvailableEi = __sdk_start + 0x1453a0;
_ZN2nn6socket6detail17GetHeapGenerationEv = __sdk_start + 0x1453d0;
_ZN2nn6socket6detail10InitializeEPvmmi = __sdk_start + 0x1453e0;
_ZN2nn6socket6detail10InitializeERKNS0_6ConfigE = __sdk_start + 0x1457c0;
_ZN2nn6socket6detail8FinalizeEv = __sdk_start + 0x1457d0;
_ZN2nn6socket6detail12SetLastErrnoEi = __sdk_start + 0x145890;
_ZN2nn6socket6detail12GetLastErrorEv = __sdk_start + 0x1458d0;
_ZN2nn6socket6detail12GetLastErrnoEv = __sdk_start + 0x145910;
_ZN2nn6socket6detail4RecvEiPvmNS0_7MsgFlagE = __sdk_start + 0x145950;
_ZN2nn6socket6detail4RecvEiPvmi = __sdk_start + 0x145ac0;
_ZN2nn6socket6detail8RecvFromEiPvmNS0_7MsgFlagEPNS0_8SockAddrEPj = __sdk_start + 0x145c30;
_ZN2nn6socket6detail8RecvFromEiPvmiP8sockaddrPj = __sdk_start + 0x145df0;
_ZN2nn6socket6detail7RecvMsgEiPNS0_6MsgHdrENS0_7MsgFlagE = __sdk_start + 0x145fb0;
_ZN2nn6socket6detail8RecvMMsgEiPNS0_7MMsgHdrEmNS0_7MsgFlagEPNS_8TimeSpanE = __sdk_start + 0x146070;
_ZN2nn6socket6detail7RecvMsgEiP6msghdri = __sdk_start + 0x146430;
_ZN2nn6socket6detail8RecvMMsgEiP7mmsghdrmiPNS_8TimeSpanE = __sdk_start + 0x1464f0;
_ZN2nn6socket6detail4SendEiPKvmNS0_7MsgFlagE = __sdk_start + 0x146920;
_ZN2nn6socket6detail4SendEiPKvmi = __sdk_start + 0x146a90;
_ZN2nn6socket6detail6SendToEiPKvmNS0_7MsgFlagEPKNS0_8SockAddrEj = __sdk_start + 0x146c00;
_ZN2nn6socket6detail6SendToEiPKvmiPK8sockaddrj = __sdk_start + 0x146db0;
_ZN2nn6socket6detail7SendMsgEiPKNS0_6MsgHdrENS0_7MsgFlagE = __sdk_start + 0x146f60;
_ZN2nn6socket6detail8SendMMsgEiPNS0_7MMsgHdrEmNS0_7MsgFlagE = __sdk_start + 0x146ff0;
_ZN2nn6socket6detail7SendMsgEiPK6msghdri = __sdk_start + 0x147370;
_ZN2nn6socket6detail8SendMMsgEiP7mmsghdrmi = __sdk_start + 0x147400;
_ZN2nn6socket6detail6AcceptEiPNS0_8SockAddrEPj = __sdk_start + 0x147410;
_ZN2nn6socket6detail6AcceptEiP8sockaddrPj = __sdk_start + 0x1475a0;
_ZN2nn6socket6detail4BindEiPKNS0_8SockAddrEj = __sdk_start + 0x147730;
_ZN2nn6socket6detail4BindEiPK8sockaddrj = __sdk_start + 0x147870;
_ZN2nn6socket6detail7ConnectEiPKNS0_8SockAddrEj = __sdk_start + 0x1479b0;
_ZN2nn6socket6detail7ConnectEiPK8sockaddrj = __sdk_start + 0x147af0;
_ZN2nn6socket6detail11GetPeerNameEiPNS0_8SockAddrEPj = __sdk_start + 0x147c30;
_ZN2nn6socket6detail11GetPeerNameEiP8sockaddrPj = __sdk_start + 0x147da0;
_ZN2nn6socket6detail11GetSockNameEiPNS0_8SockAddrEPj = __sdk_start + 0x147f10;
_ZN2nn6socket6detail11GetSockNameEiP8sockaddrPj = __sdk_start + 0x148090;
_ZN2nn6socket6detail10GetSockOptEiNS0_5LevelENS0_6OptionEPvPj = __sdk_start + 0x148200;
_ZN2nn6socket6detail10GetSockOptEiiiPvPj = __sdk_start + 0x148380;
_ZN2nn6socket6detail6ListenEii = __sdk_start + 0x148500;
_ZN2nn6socket6detail5FcntlEiNS0_12FcntlCommandEz = __sdk_start + 0x148610;
_ZN2nn6socket6detail5FcntlEiiz = __sdk_start + 0x1487a0;
_ZN2nn6socket6detail10SetSockOptEiNS0_5LevelENS0_6OptionEPKvj = __sdk_start + 0x148930;
_ZN2nn6socket6detail10SetSockOptEiiiPKvj = __sdk_start + 0x148a90;
_ZN2nn6socket6detail8ShutdownEiNS0_14ShutdownMethodE = __sdk_start + 0x148be0;
_ZN2nn6socket6detail8ShutdownEii = __sdk_start + 0x148cf0;
_ZN2nn6socket6detail18ShutdownAllSocketsEb = __sdk_start + 0x148e00;
_ZN2nn6socket6detail5WriteEiPKvm = __sdk_start + 0x148f10;
_ZN2nn6socket6detail4ReadEiPvm = __sdk_start + 0x149070;
_ZN2nn6socket6detail10SockAtMarkEi = __sdk_start + 0x1491d0;
_ZN2nn6socket6detail5IoctlEijPvm = __sdk_start + 0x149230;
_ZN2nn6socket6detail6SelectEiPNS0_5FdSetES3_S3_PNS0_7TimeValE = __sdk_start + 0x149470;
_ZN2nn6socket6detail6SelectEiP6fd_setS3_S3_P7timeval = __sdk_start + 0x149660;
_ZN2nn6socket6detail5IoctlEiNS0_12IoctlCommandEPvm = __sdk_start + 0x149850;
_ZN2nn6socket6detail4PollEPNS0_6PollFdEmi = __sdk_start + 0x149e40;
_ZN2nn6socket6detail4PollEP6pollfdmi = __sdk_start + 0x149fa0;
_ZN2nn6socket6detail6SocketENS0_6FamilyENS0_4TypeENS0_8ProtocolE = __sdk_start + 0x14a100;
_ZN2nn6socket6detail6SocketEiii = __sdk_start + 0x14a210;
_ZN2nn6socket6detail12SocketExemptENS0_6FamilyENS0_4TypeENS0_8ProtocolE = __sdk_start + 0x14a320;
_ZN2nn6socket6detail12SocketExemptEiii = __sdk_start + 0x14a430;
_ZN2nn6socket6detail4OpenEPKcNS0_8OpenFlagE = __sdk_start + 0x14a540;
_ZN2nn6socket6detail4OpenEPKci = __sdk_start + 0x14a6a0;
_ZN2nn6socket6detail5CloseEi = __sdk_start + 0x14a800;
_ZN2nn6socket6detail6SysctlEPimPvPmS3_m = __sdk_start + 0x14a900;
_ZN2nn6socket6detail15DuplicateSocketEim = __sdk_start + 0x14aac0;
_ZN2nn6socket6detail7EventFdEmi = __sdk_start + 0x14abd0;
_ZN2nn6socket6detail30RegisterResourceStatisticsNameEPKcm = __sdk_start + 0x14ace0;
_ZN2nn6socket6detail30RegisterResourceStatisticsNameEPKcmPNS0_16StatisticsMemoryE = __sdk_start + 0x14acf0;
_ZN2nn6socket6detail21RegisterForStatisticsEPKcm = __sdk_start + 0x14ad00;
_ZN2nn6socket6detail21RegisterForStatisticsEPKcmPNS0_16StatisticsMemoryE = __sdk_start + 0x14af00;
_ZN2nn6socket6detail21GetResourceStatisticsENS0_14StatisticsTypeEPvmjPKcm = __sdk_start + 0x14af10;
_ZN2nn6socket6detail19GetSocketStatisticsENS0_20SocketStatisticsTypeEPvm = __sdk_start + 0x14b140;
_ZN2nn6socket6detail17SetThreadCoreMaskEm = __sdk_start + 0x14b2a0;
_ZN2nn6socket6detail17GetThreadCoreMaskEv = __sdk_start + 0x14b2f0;
_ZN2nn6socket6detail8InetNtopENS0_6FamilyEPKvPcj = __sdk_start + 0x14b340;
_ZN2nn6socket6detail8InetNtopEiPKvPcj = __sdk_start + 0x14b350;
_ZN2nn6socket6detail8InetPtonENS0_6FamilyEPKcPv = __sdk_start + 0x14b360;
_ZN2nn6socket6detail8InetPtonEiPKcPv = __sdk_start + 0x14b370;
_ZN2nn6socket6detail8InetAtonEPKcPNS0_6InAddrE = __sdk_start + 0x14b380;
_ZN2nn6socket6detail8InetAtonEPKcP7in_addr = __sdk_start + 0x14b390;
_ZN2nn6socket6detail8InetNtoaENS0_6InAddrE = __sdk_start + 0x14b3a0;
_ZN2nn6socket6detail8InetNtoaE7in_addr = __sdk_start + 0x14b3b0;
_ZN2nn6socket6detail9InetHtonsEt = __sdk_start + 0x14b3c0;
_ZN2nn6socket6detail9InetHtonlEj = __sdk_start + 0x14b3d0;
_ZN2nn6socket6detail10InetHtonllEm = __sdk_start + 0x14b3e0;
_ZN2nn6socket6detail9InetNtohsEt = __sdk_start + 0x14b3f0;
_ZN2nn6socket6detail9InetNtohlEj = __sdk_start + 0x14b400;
_ZN2nn6socket6detail10InetNtohllEm = __sdk_start + 0x14b410;
_ZN2nn6socket6detail16GetHostEntByNameEPKcPKNS0_14ResolverOptionEm = __sdk_start + 0x14b420;
_ZN2nn6socket6detail13GetHostByNameEPKcPKNS0_14ResolverOptionEm = __sdk_start + 0x14b430;
_ZN2nn6socket6detail16GetHostEntByAddrEPKvjNS0_6FamilyEPKNS0_14ResolverOptionEm = __sdk_start + 0x14b440;
_ZN2nn6socket6detail13GetHostByAddrEPKvjiPKNS0_14ResolverOptionEm = __sdk_start + 0x14b450;
_ZN2nn6socket6detail9HStrErrorENS0_6HErrnoE = __sdk_start + 0x14b460;
_ZN2nn6socket6detail9HStrErrorEi = __sdk_start + 0x14b470;
_ZN2nn6socket6detail11GAIStrErrorENS0_7AiErrnoE = __sdk_start + 0x14b480;
_ZN2nn6socket6detail11GAIStrErrorEi = __sdk_start + 0x14b490;
_ZN2nn6socket6detail17ResolverGetOptionEPNS0_14ResolverOptionEj = __sdk_start + 0x14b4a0;
_ZN2nn6socket6detail17ResolverSetOptionERKNS0_14ResolverOptionE = __sdk_start + 0x14b4b0;
_ZN2nn6socket6detail11GetAddrInfoEPKcS3_PKNS0_8AddrInfoEPPS4_PKNS0_14ResolverOptionEm = __sdk_start + 0x14b4c0;
_ZN2nn6socket6detail11GetAddrInfoEPKcS3_PK8addrinfoPPS4_PKNS0_14ResolverOptionEm = __sdk_start + 0x14b4d0;
_ZN2nn6socket6detail11GetNameInfoEPKNS0_8SockAddrEjPcmS5_mNS0_12NameInfoFlagEPKNS0_14ResolverOptionEm = __sdk_start + 0x14b4e0;
_ZN2nn6socket6detail11GetNameInfoEPK8sockaddrjPcjS5_jiPKNS0_14ResolverOptionEm = __sdk_start + 0x14b4f0;
_ZN2nn6socket6detail12FreeAddrInfoEPNS0_8AddrInfoE = __sdk_start + 0x14b510;
_ZN2nn6socket6detail12FreeAddrInfoEP8addrinfo = __sdk_start + 0x14b520;
_ZN2nn6socket6detail9GetHErrorEv = __sdk_start + 0x14b5b0;
_ZN2nn6socket6detail9GetHErrnoEv = __sdk_start + 0x14b5c0;
_ZN2nn6socket6detail10socketAtonEPKcPNS0_6InAddrE = __sdk_start + 0x14b780;
_ZN2nn6socket6detail10socketAtonEPKcP7in_addr = __sdk_start + 0x14b9b0;
_ZN2nn6socket6detail25CreateClientMonitorByHipcEPKc = __sdk_start + 0x14bbe0;
_ZN2nn6socket6detail25CreateClientServiceByHipcEiPKc = __sdk_start + 0x14bca0;
_ZN2nn6socket6detail26DestroyClientMonitorByHipcEPNS_2sf13SharedPointerINS0_2sf10IClient_MCEEE = __sdk_start + 0x14be40;
_ZN2nn6socket6detail26DestroyClientServiceByHipcEPNS_2sf13SharedPointerINS0_2sf10IClient_MCEEE = __sdk_start + 0x14bea0;
_ZN2nn6socket6detail10socketNtoaENS0_6InAddrE = __sdk_start + 0x152f60;
_ZN2nn6socket6detail10socketNtoaE7in_addr = __sdk_start + 0x152fb0;
_ZN2nn6socket6detail11socketNtoaRENS0_6InAddrEPcm = __sdk_start + 0x153000;
_ZN2nn6socket6detail11socketNtoaRE7in_addrPcm = __sdk_start + 0x153050;
_ZN2nn6socket6detail10socketNtopENS0_6FamilyEPKvPcj = __sdk_start + 0x1530a0;
_ZN2nn6socket6detail10socketNtopEiPKvPcj = __sdk_start + 0x153170;
_ZN2nn6socket6detail10socketPtonENS0_6FamilyEPKcPv = __sdk_start + 0x153180;
_ZN2nn6socket6detail10socketPtonEiPKcPv = __sdk_start + 0x1532c0;
_ZN2nn6socket6detail14CopyToPlatformEP11sockaddr_inPKNS0_10SockAddrInE = __sdk_start + 0x1532d0;
_ZN2nn6socket6detail16CopyFromPlatformEPNS0_10SockAddrInEPK11sockaddr_in = __sdk_start + 0x153300;
_ZN2nn6socket6detail16CopyFromPlatformEPPNS0_8AddrInfoEPK8addrinfo = __sdk_start + 0x153330;
_ZN2nn6socket6detail18FreeCopiedAddrInfoEPNS0_8AddrInfoE = __sdk_start + 0x153470;
_ZN2nn6socket6detail14CopyToPlatformEP6fd_setPKNS0_5FdSetE = __sdk_start + 0x1534b0;
_ZN2nn6socket6detail16CopyFromPlatformEPNS0_5FdSetEPK6fd_set = __sdk_start + 0x153500;
_ZN2nn6socket8resolver3tls10InitializeEv = __sdk_start + 0x153550;
_ZN2nn6socket8resolver3tls8FinalizeEv = __sdk_start + 0x153640;
_ZN2nn6socket8resolver3tls12GetServerTLSERPv = __sdk_start + 0x153650;
_ZN2nn6socket8resolver3tls12SetServerTLSEPFvPvES3_ = __sdk_start + 0x153780;
_ZN2nn6socket8resolver3tls12GetClientTLSERPv = __sdk_start + 0x1537f0;
_ZN2nn6socket8resolver3tls12SetClientTLSEPFvPvES3_ = __sdk_start + 0x153840;
_ZN2nn6socket8resolver16InitializeClientEv = __sdk_start + 0x1539a0;
_ZN2nn6socket8resolver14FinalizeClientEv = __sdk_start + 0x1539f0;
_ZN2nn6socket8resolver18GetHostStringErrorEj = __sdk_start + 0x153a20;
_ZN2nn6socket8resolver17ResolverGetOptionEPNS0_14ResolverOptionENS0_17ResolverOptionKeyE = __sdk_start + 0x153b80;
_ZN2nn6socket8resolver17GetGaiStringErrorEj = __sdk_start + 0x153df0;
_ZN2nn6socket8resolver17ResolverSetOptionERKNS0_14ResolverOptionE = __sdk_start + 0x153f50;
_ZN2nn6socket8resolver16GetHostEntByNameEPKc = __sdk_start + 0x154100;
_ZN2nn6socket8resolver13GetHostByNameEPKc = __sdk_start + 0x1543e0;
_ZN2nn6socket8resolver16GetHostEntByNameEPKcPKNS0_14ResolverOptionEm = __sdk_start + 0x1546c0;
_ZN2nn6socket8resolver13GetHostByNameEPKcPKNS0_14ResolverOptionEm = __sdk_start + 0x1546d0;
_ZN2nn6socket8resolver16GetHostEntByAddrEPKvjNS0_6FamilyE = __sdk_start + 0x1546e0;
_ZN2nn6socket8resolver13GetHostByAddrEPKvjj = __sdk_start + 0x1549a0;
_ZN2nn6socket8resolver16GetHostEntByAddrEPKvjNS0_6FamilyEPKNS0_14ResolverOptionEm = __sdk_start + 0x154c80;
_ZN2nn6socket8resolver13GetHostByAddrEPKvjjPKNS0_14ResolverOptionEm = __sdk_start + 0x154c90;
_ZN2nn6socket8resolver11GetAddrInfoEPKcS3_PKNS0_8AddrInfoEPPS4_ = __sdk_start + 0x154ca0;
_ZN2nn6socket8resolver11GetAddrInfoEPKcS3_PK8addrinfoPPS4_ = __sdk_start + 0x155050;
_ZN2nn6socket8resolver11GetAddrInfoEPKcS3_PKNS0_8AddrInfoEPPS4_PKNS0_14ResolverOptionEm = __sdk_start + 0x1553e0;
_ZN2nn6socket8resolver11GetAddrInfoEPKcS3_PK8addrinfoPPS4_PKNS0_14ResolverOptionEm = __sdk_start + 0x1553f0;
_ZN2nn6socket8resolver11GetNameInfoEPKNS0_8SockAddrEjPcmS5_mNS0_12NameInfoFlagE = __sdk_start + 0x155400;
_ZN2nn6socket8resolver11GetNameInfoEPK8sockaddrjPcmS5_mi = __sdk_start + 0x1555d0;
_ZN2nn6socket8resolver11GetNameInfoEPKNS0_8SockAddrEjPcmS5_mNS0_12NameInfoFlagEPKNS0_14ResolverOptionEm = __sdk_start + 0x1557a0;
_ZN2nn6socket8resolver11GetNameInfoEPK8sockaddrjPcmS5_miPKNS0_14ResolverOptionEm = __sdk_start + 0x1557b0;
_ZN2nn6socket8resolver3tls6Client10InitializeEv = __sdk_start + 0x155810;
_ZN2nn6socket8resolver3tls6Client8FinalizeEv = __sdk_start + 0x155820;
_ZN2nn6socket8resolver3tls6Client17InternalHostErrnoEv = __sdk_start + 0x155830;
_ZN2nn6socket8resolver3tls6Client17GetCurrentHostentEv = __sdk_start + 0x155960;
_ZN2nn6socket8resolver3tls6Client20GetCurrentHostentOldEv = __sdk_start + 0x1559a0;
_ZN2nn6socket8resolver3tls6Client17SetCurrentHostentEPNS0_7HostEntE = __sdk_start + 0x1559e0;
_ZN2nn6socket8resolver3tls6Client20SetCurrentHostentOldEP7hostent = __sdk_start + 0x155a50;
_ZN2nn6socket8resolver3tls6Client22GetCurrentHErrorStringEv = __sdk_start + 0x155ac0;
_ZN2nn6socket8resolver3tls6Client22SetCurrentHErrorStringEPKc = __sdk_start + 0x155b00;
_ZN2nn6socket8resolver3tls6Client24GetCurrentGaiErrorStringEv = __sdk_start + 0x155ba0;
_ZN2nn6socket8resolver3tls6Client24SetCurrentGaiErrorStringEPKc = __sdk_start + 0x155be0;
_ZN2nn6socket8resolver3tls6Client24ClientThreadLocalStorageD2Ev = __sdk_start + 0x155cac;
_ZN2nn6socket8resolver20CreateResolverByHipcERNS_2sf13SharedPointerINS1_9IResolverEEE = __sdk_start + 0x155d20;
_ZN2nn6socket8resolver24RefCountHelperInitializeEv = __sdk_start + 0x157cb0;
_ZN2nn6socket8resolver22RefCountHelperFinalizeEv = __sdk_start + 0x157d00;
_ZN2nn6socket8resolver23IncrementSocketIfNeededEv = __sdk_start + 0x157d30;
_ZN2nn6socket8resolver23AreResolverCallsEnabledEv = __sdk_start + 0x157db0;
_ZN2nn6socket8resolver32DecrementSocketAndSignalIfNeededEv = __sdk_start + 0x157dd0;
_ZN2nn6socket8resolver33WaitForAllResolverCallsToCompleteEv = __sdk_start + 0x157e20;
_ZN2nn6socket8resolver19EnableResolverCallsEv = __sdk_start + 0x157e70;
_ZN2nn6socket8resolver20DisableResolverCallsEv = __sdk_start + 0x157eb0;
_ZN2nn6socket8resolver14CreateRandomIdERi = __sdk_start + 0x157ed0;
_ZN2nn6socket8resolver23GetOperationStateStringERKNS1_14OperationStateE = __sdk_start + 0x157fa0;
_ZN2nn6socket8resolver26GetResolverOptionKeyStringERKNS0_17ResolverOptionKeyE = __sdk_start + 0x157fd0;
_ZN2nn6socket8resolver27GetResolverOptionTypeStringERKNS0_18ResolverOptionTypeE = __sdk_start + 0x158100;
_ZN2nn6socket6detail4RecvEiPvmNS0_7MsgFlagE = __sdk_start + 0x5c54f0;
_ZN2nn6socket6detail4RecvEiPvmi = __sdk_start + 0x5c5500;
_ZN2nn6socket6detail8RecvFromEiPvmNS0_7MsgFlagEPNS0_8SockAddrEPj = __sdk_start + 0x5c5510;
_ZN2nn6socket6detail8RecvFromEiPvmiP8sockaddrPj = __sdk_start + 0x5c5520;
_ZN2nn6socket6detail4SendEiPKvmNS0_7MsgFlagE = __sdk_start + 0x5c5530;
_ZN2nn6socket6detail4SendEiPKvmi = __sdk_start + 0x5c5540;
_ZN2nn6socket6detail6SendToEiPKvmNS0_7MsgFlagEPKNS0_8SockAddrEj = __sdk_start + 0x5c5550;
_ZN2nn6socket6detail6SendToEiPKvmiPK8sockaddrj = __sdk_start + 0x5c5560;
_ZN2nn6socket6detail6AcceptEiPNS0_8SockAddrEPj = __sdk_start + 0x5c5570;
_ZN2nn6socket6detail6AcceptEiP8sockaddrPj = __sdk_start + 0x5c5580;
_ZN2nn6socket6detail4BindEiPKNS0_8SockAddrEj = __sdk_start + 0x5c5590;
_ZN2nn6socket6detail4BindEiPK8sockaddrj = __sdk_start + 0x5c55a0;
_ZN2nn6socket6detail7ConnectEiPKNS0_8SockAddrEj = __sdk_start + 0x5c55b0;
_ZN2nn6socket6detail7ConnectEiPK8sockaddrj = __sdk_start + 0x5c55c0;
_ZN2nn6socket6detail11GetPeerNameEiPNS0_8SockAddrEPj = __sdk_start + 0x5c55d0;
_ZN2nn6socket6detail11GetPeerNameEiP8sockaddrPj = __sdk_start + 0x5c55e0;
_ZN2nn6socket6detail11GetSockNameEiPNS0_8SockAddrEPj = __sdk_start + 0x5c55f0;
_ZN2nn6socket6detail11GetSockNameEiP8sockaddrPj = __sdk_start + 0x5c5600;
_ZN2nn6socket6detail10GetSockOptEiNS0_5LevelENS0_6OptionEPvPj = __sdk_start + 0x5c5610;
_ZN2nn6socket6detail10GetSockOptEiiiPvPj = __sdk_start + 0x5c5620;
_ZN2nn6socket6detail6ListenEii = __sdk_start + 0x5c5630;
_ZN2nn6socket6detail10SetSockOptEiNS0_5LevelENS0_6OptionEPKvj = __sdk_start + 0x5c5640;
_ZN2nn6socket6detail10SetSockOptEiiiPKvj = __sdk_start + 0x5c5650;
_ZN2nn6socket6detail10SockAtMarkEi = __sdk_start + 0x5c5660;
_ZN2nn6socket6detail8ShutdownEiNS0_14ShutdownMethodE = __sdk_start + 0x5c5670;
_ZN2nn6socket6detail8ShutdownEii = __sdk_start + 0x5c5680;
_ZN2nn6socket6detail18ShutdownAllSocketsEb = __sdk_start + 0x5c5690;
_ZN2nn6socket6detail6SocketENS0_6FamilyENS0_4TypeENS0_8ProtocolE = __sdk_start + 0x5c56a0;
_ZN2nn6socket6detail6SocketEiii = __sdk_start + 0x5c56b0;
_ZN2nn6socket6detail12SocketExemptENS0_6FamilyENS0_4TypeENS0_8ProtocolE = __sdk_start + 0x5c56c0;
_ZN2nn6socket6detail12SocketExemptEiii = __sdk_start + 0x5c56d0;
_ZN2nn6socket6detail5WriteEiPKvm = __sdk_start + 0x5c56e0;
_ZN2nn6socket6detail4ReadEiPvm = __sdk_start + 0x5c56f0;
_ZN2nn6socket6detail5CloseEi = __sdk_start + 0x5c5700;
_ZN2nn6socket6detail6SelectEiPNS0_5FdSetES3_S3_PNS0_7TimeValE = __sdk_start + 0x5c5710;
_ZN2nn6socket6detail6SelectEiP6fd_setS3_S3_P7timeval = __sdk_start + 0x5c5720;
_ZN2nn6socket6detail4PollEPNS0_6PollFdEmi = __sdk_start + 0x5c5730;
_ZN2nn6socket6detail4PollEP6pollfdmi = __sdk_start + 0x5c5740;
_ZN2nn6socket6detail5FcntlEiNS0_12FcntlCommandEz = __sdk_start + 0x5c5750;
_ZN2nn6socket6detail5FcntlEiiz = __sdk_start + 0x5c5760;
_ZN2nn6socket6detail7EventFdEmi = __sdk_start + 0x5c5770;
_ZN2nn6socket6detail8InetPtonENS0_6FamilyEPKcPv = __sdk_start + 0x5c5780;
_ZN2nn6socket6detail8InetPtonEiPKcPv = __sdk_start + 0x5c5790;
_ZN2nn6socket6detail8InetNtopENS0_6FamilyEPKvPcj = __sdk_start + 0x5c57a0;
_ZN2nn6socket6detail8InetNtopEiPKvPcj = __sdk_start + 0x5c57b0;
_ZN2nn6socket6detail8InetAtonEPKcPNS0_6InAddrE = __sdk_start + 0x5c57c0;
_ZN2nn6socket6detail8InetAtonEPKcP7in_addr = __sdk_start + 0x5c57d0;
_ZN2nn6socket6detail8InetNtoaENS0_6InAddrE = __sdk_start + 0x5c57e0;
_ZN2nn6socket6detail8InetNtoaE7in_addr = __sdk_start + 0x5c57f0;
_ZN2nn6socket6detail9InetHtonsEt = __sdk_start + 0x5c5800;
_ZN2nn6socket6detail9InetHtonlEj = __sdk_start + 0x5c5810;
_ZN2nn6socket6detail10InetHtonllEm = __sdk_start + 0x5c5820;
_ZN2nn6socket6detail9InetNtohsEt = __sdk_start + 0x5c5830;
_ZN2nn6socket6detail9InetNtohlEj = __sdk_start + 0x5c5840;
_ZN2nn6socket6detail10InetNtohllEm = __sdk_start + 0x5c5850;
_ZN2nn6socket6detail12GetLastErrorEv = __sdk_start + 0x5c5860;
_ZN2nn6socket6detail12GetLastErrnoEv = __sdk_start + 0x5c5870;
_ZN2nn6socket6detail12SetLastErrorENS0_5ErrnoE = __sdk_start + 0x5c5880;
_ZN2nn6socket6detail12SetLastErrnoEi = __sdk_start + 0x5c5890;
_ZN2nn6socket6detail7RecvMsgEiPNS0_6MsgHdrENS0_7MsgFlagE = __sdk_start + 0x5c58a0;
_ZN2nn6socket6detail7RecvMsgEiP6msghdri = __sdk_start + 0x5c58b0;
_ZN2nn6socket6detail8RecvMMsgEiPNS0_7MMsgHdrEmNS0_7MsgFlagEPNS_8TimeSpanE = __sdk_start + 0x5c58c0;
_ZN2nn6socket6detail8RecvMMsgEiP7mmsghdrmiPNS_8TimeSpanE = __sdk_start + 0x5c58d0;
_ZN2nn6socket6detail7SendMsgEiPKNS0_6MsgHdrENS0_7MsgFlagE = __sdk_start + 0x5c58e0;
_ZN2nn6socket6detail7SendMsgEiPK6msghdri = __sdk_start + 0x5c58f0;
_ZN2nn6socket6detail8SendMMsgEiPNS0_7MMsgHdrEmNS0_7MsgFlagE = __sdk_start + 0x5c5900;
_ZN2nn6socket6detail8SendMMsgEiP7mmsghdrmi = __sdk_start + 0x5c5910;
_ZN2nn6socket6detail5IoctlEiNS0_12IoctlCommandEPvm = __sdk_start + 0x5c5920;
_ZN2nn6socket6detail5IoctlEijPvm = __sdk_start + 0x5c5930;
_ZN2nn6socket6detail4OpenEPKcNS0_8OpenFlagE = __sdk_start + 0x5c5940;
_ZN2nn6socket6detail4OpenEPKci = __sdk_start + 0x5c5950;
_ZN2nn6socket6detail13IsInitializedEv = __sdk_start + 0x5c5960;
_ZN2nn6socket6detail10InitializeEPvmmi = __sdk_start + 0x5c5970;
_ZN2nn6socket6detail10InitializeERKNS0_6ConfigE = __sdk_start + 0x5c5980;
_ZN2nn6socket6detail8FinalizeEv = __sdk_start + 0x5c5990;
_ZN2nn6socket6detail11GetAddrInfoEPKcS3_PKNS0_8AddrInfoEPPS4_PKNS0_14ResolverOptionEm = __sdk_start + 0x5c59a0;
_ZN2nn6socket6detail11GetAddrInfoEPKcS3_PK8addrinfoPPS4_PKNS0_14ResolverOptionEm = __sdk_start + 0x5c59b0;
_ZN2nn6socket6detail12FreeAddrInfoEPNS0_8AddrInfoE = __sdk_start + 0x5c59c0;
_ZN2nn6socket6detail12FreeAddrInfoEP8addrinfo = __sdk_start + 0x5c59d0;
_ZN2nn6socket6detail11GetNameInfoEPKNS0_8SockAddrEjPcmS5_mNS0_12NameInfoFlagEPKNS0_14ResolverOptionEm = __sdk_start + 0x5c59e0;
_ZN2nn6socket6detail11GetNameInfoEPK8sockaddrjPcjS5_jiPKNS0_14ResolverOptionEm = __sdk_start + 0x5c59f0;
_ZN2nn6socket6detail16GetHostEntByNameEPKcPKNS0_14ResolverOptionEm = __sdk_start + 0x5c5a00;
_ZN2nn6socket6detail13GetHostByNameEPKcPKNS0_14ResolverOptionEm = __sdk_start + 0x5c5a10;
_ZN2nn6socket6detail16GetHostEntByAddrEPKvjNS0_6FamilyEPKNS0_14ResolverOptionEm = __sdk_start + 0x5c5a20;
_ZN2nn6socket6detail13GetHostByAddrEPKvjiPKNS0_14ResolverOptionEm = __sdk_start + 0x5c5a30;
_ZN2nn6socket6detail9GetHErrorEv = __sdk_start + 0x5c5a40;
_ZN2nn6socket6detail9GetHErrnoEv = __sdk_start + 0x5c5a50;
_ZN2nn6socket6detail9HStrErrorENS0_6HErrnoE = __sdk_start + 0x5c5a60;
_ZN2nn6socket6detail9HStrErrorEi = __sdk_start + 0x5c5a70;
_ZN2nn6socket6detail11GAIStrErrorENS0_7AiErrnoE = __sdk_start + 0x5c5a80;
_ZN2nn6socket6detail11GAIStrErrorEi = __sdk_start + 0x5c5a90;
_ZN2nn6socket6detail17ResolverGetOptionEPNS0_14ResolverOptionEj = __sdk_start + 0x5c5aa0;
_ZN2nn6socket6detail17ResolverSetOptionERKNS0_14ResolverOptionE = __sdk_start + 0x5c5ab0;
_ZN2nn6socket6detail6SysctlEPimPvPmS3_m = __sdk_start + 0x5c5ac0;
_ZN2nn6socket6detail15DuplicateSocketEim = __sdk_start + 0x5c5ad0;
_ZN2nn6socket6detail30RegisterResourceStatisticsNameEPKcmPNS0_16StatisticsMemoryE = __sdk_start + 0x5c5ae0;
_ZN2nn6socket6detail30RegisterResourceStatisticsNameEPKcm = __sdk_start + 0x5c5af0;
_ZN2nn6socket6detail21RegisterForStatisticsEPKcmPNS0_16StatisticsMemoryE = __sdk_start + 0x5c5b00;
_ZN2nn6socket6detail21RegisterForStatisticsEPKcm = __sdk_start + 0x5c5b10;
_ZN2nn6socket6detail21GetResourceStatisticsENS0_14StatisticsTypeEPvmjPKcm = __sdk_start + 0x5c5b20;
_ZN2nn6socket6detail19GetSocketStatisticsENS0_20SocketStatisticsTypeEPvm = __sdk_start + 0x5c5b30;
_ZN2nn6socket6detail17SetThreadCoreMaskEm = __sdk_start + 0x5c5b40;
_ZN2nn6socket6detail17GetThreadCoreMaskEv = __sdk_start + 0x5c5b50;
_ZN2nn6socket4RecvEiPvmi = __sdk_start + 0x5c5b60;
_ZN2nn6socket8RecvFromEiPvmiP8sockaddrPj = __sdk_start + 0x5c5b70;
_ZN2nn6socket4SendEiPKvmi = __sdk_start + 0x5c5b80;
_ZN2nn6socket6SendToEiPKvmiPK8sockaddrj = __sdk_start + 0x5c5b90;
_ZN2nn6socket6AcceptEiP8sockaddrPj = __sdk_start + 0x5c5ba0;
_ZN2nn6socket4BindEiPK8sockaddrj = __sdk_start + 0x5c5bb0;
_ZN2nn6socket7ConnectEiPK8sockaddrj = __sdk_start + 0x5c5bc0;
_ZN2nn6socket11GetPeerNameEiP8sockaddrPj = __sdk_start + 0x5c5bd0;
_ZN2nn6socket11GetSockNameEiP8sockaddrPj = __sdk_start + 0x5c5be0;
_ZN2nn6socket10GetSockOptEiiiPvPj = __sdk_start + 0x5c5bf0;
_ZN2nn6socket6ListenEii = __sdk_start + 0x5c5c00;
_ZN2nn6socket10SetSockOptEiiiPKvj = __sdk_start + 0x5c5c10;
_ZN2nn6socket10SockAtMarkEi = __sdk_start + 0x5c5c20;
_ZN2nn6socket8ShutdownEii = __sdk_start + 0x5c5c30;
_ZN2nn6socket6SocketEiii = __sdk_start + 0x5c5c40;
_ZN2nn6socket5WriteEiPKvm = __sdk_start + 0x5c5c50;
_ZN2nn6socket4ReadEiPvm = __sdk_start + 0x5c5c60;
_ZN2nn6socket5CloseEi = __sdk_start + 0x5c5c70;
_ZN2nn6socket6SelectEiP6fd_setS2_S2_P7timeval = __sdk_start + 0x5c5c80;
_ZN2nn6socket4PollEP6pollfdmi = __sdk_start + 0x5c5c90;
_ZN2nn6socket5FcntlEiiz = __sdk_start + 0x5c5ca0;
_ZN2nn6socket8InetPtonEiPKcPv = __sdk_start + 0x5c5cb0;
_ZN2nn6socket8InetNtopEiPKvPcj = __sdk_start + 0x5c5cc0;
_ZN2nn6socket8InetAtonEPKcP7in_addr = __sdk_start + 0x5c5cd0;
_ZN2nn6socket8InetNtoaE7in_addr = __sdk_start + 0x5c5ce0;
_ZN2nn6socket9InetHtonsEt = __sdk_start + 0x5c5cf0;
_ZN2nn6socket9InetHtonlEj = __sdk_start + 0x5c5d00;
_ZN2nn6socket10InetHtonllEm = __sdk_start + 0x5c5d10;
_ZN2nn6socket9InetNtohsEt = __sdk_start + 0x5c5d20;
_ZN2nn6socket9InetNtohlEj = __sdk_start + 0x5c5d30;
_ZN2nn6socket10InetNtohllEm = __sdk_start + 0x5c5d40;
_ZN2nn6socket12GetLastErrnoEv = __sdk_start + 0x5c5d50;
_ZN2nn6socket12SetLastErrnoEi = __sdk_start + 0x5c5d60;
_ZN2nn6socket7RecvMsgEiP6msghdri = __sdk_start + 0x5c5d70;
_ZN2nn6socket7SendMsgEiPK6msghdri = __sdk_start + 0x5c5d80;
_ZN2nn6socket5IoctlEijPvm = __sdk_start + 0x5c5d90;
_ZN2nn6socket4OpenEPKci = __sdk_start + 0x5c5da0;
_ZN2nn6socket10InitializeEPvmmi = __sdk_start + 0x5c5db0;
_ZN2nn6socket8FinalizeEv = __sdk_start + 0x5c5dc0;
_ZN2nn6socket11GetAddrInfoEPKcS2_PK8addrinfoPPS3_PKNS0_14ResolverOptionEm = __sdk_start + 0x5c5dd0;
_ZN2nn6socket13GetHostByNameEPKcPKNS0_14ResolverOptionEm = __sdk_start + 0x5c5de0;
_ZN2nn6socket13GetHostByAddrEPKvjiPKNS0_14ResolverOptionEm = __sdk_start + 0x5c5df0;
_ZN2nn6socket11GetNameInfoEPK8sockaddrjPcjS4_jiPKNS0_14ResolverOptionEm = __sdk_start + 0x5c5e00;
_ZN2nn6socket12FreeAddrInfoEP8addrinfo = __sdk_start + 0x5c5e10;
_ZN2nn6socket9GetHErrnoEv = __sdk_start + 0x5c5e20;
_ZN2nn6socket9HStrErrorEi = __sdk_start + 0x5c5e30;
_ZN2nn6socket17ResolverGetOptionEPNS0_14ResolverOptionENS0_17ResolverOptionKeyE = __sdk_start + 0x5c5e40;
_ZN2nn6socket17ResolverSetOptionERKNS0_14ResolverOptionE = __sdk_start + 0x5c5e50;
_ZN2nn6socket11GAIStrErrorEi = __sdk_start + 0x5c5e60;
_ZN2nn6socket6SysctlEPimPvPmS2_m = __sdk_start + 0x5c5e70;
_ZN2nn6socket15DuplicateSocketEim = __sdk_start + 0x5c5e80;
_ZN2nn6socket7EventFdEmNS0_12EventFdFlagsE = __sdk_start + 0x5c5e90;
_ZN2nn6socket11EventFdReadEiPm = __sdk_start + 0x5c5ea0;
_ZN2nn6socket12EventFdWriteEim = __sdk_start + 0x5c5eb0;
_ZN2nn6socket21GetResourceStatisticsENS0_14StatisticsTypeEPvmjPKcm = __sdk_start + 0x5c5ec0;
_ZN2nn6socket30RegisterResourceStatisticsNameEPKcm = __sdk_start + 0x5c5ed0;
_ZN2nn6socket6detail4FreeEPv = __sdk_start + 0x5c5ee0;
_ZN2nn6socket8resolver10serializer13DNSSerializer6SizeOfIcEEmPKT_ = __sdk_start + 0x5c5ef0;
_ZN2nn6socket8resolver10serializer13DNSSerializer6SizeOfINS0_10SockAddrInEEEmRKT_ = __sdk_start + 0x5c5f00;
_ZN2nn6socket8resolver10serializer13DNSSerializer6SizeOfI12sockaddr_in6EEmRKT_ = __sdk_start + 0x5c5f10;
_ZN2nn6socket8resolver10serializer13DNSSerializer6SizeOfI11sockaddr_inEEmRKT_ = __sdk_start + 0x5c5f20;
_ZN2nn6socket8resolver10serializer13DNSSerializer8ToBufferIjEElPhmRKT_ = __sdk_start + 0x5c5f30;
_ZN2nn6socket8resolver10serializer13DNSSerializer8ToBufferI11sockaddr_inEElPhmRKT_ = __sdk_start + 0x5c5f40;
_ZN2nn6socket8resolver10serializer13DNSSerializer8ToBufferIcEElPhmPT_ = __sdk_start + 0x5c5f50;
_ZN2nn6socket8resolver10serializer13DNSSerializer8ToBufferI12sockaddr_in6EElPhmRKT_ = __sdk_start + 0x5c5f60;
_ZN2nn6socket8resolver10serializer13DNSSerializer22CheckToBufferArgumentsEPKhmmi = __sdk_start + 0x5c5f70;
_ZN2nn6socket8resolver10serializer13DNSSerializer16ToBufferInternalINS0_8AddrInfoEEElPhmRKT_ = __sdk_start + 0x5c5f80;
_ZN2nn6socket8resolver10serializer13DNSSerializer16ToBufferInternalI8addrinfoEElPhmRKT_ = __sdk_start + 0x5c5f90;
_ZN2nn6socket8resolver10serializer13DNSSerializer10FromBufferIjEElRT_PKhm = __sdk_start + 0x5c5fa0;
_ZN2nn6socket6detail5AllocEm = __sdk_start + 0x5c5fb0;
_ZN2nn6socket8resolver10serializer13DNSSerializer10FromBufferINS0_10SockAddrInEEElRT_PKhm = __sdk_start + 0x5c5fc0;
_ZN2nn6socket8resolver10serializer13DNSSerializer10FromBufferI12sockaddr_in6EElRT_PKhm = __sdk_start + 0x5c5fd0;
_ZN2nn6socket8resolver10serializer13DNSSerializer10FromBufferIcEElRPT_PKhm = __sdk_start + 0x5c5fe0;
_ZN2nn6socket12SetLastErrorENS0_5ErrnoE = __sdk_start + 0x5c5ff0;
_ZN2nn6socket8resolver10serializer13DNSSerializer18FromBufferInternalINS0_8AddrInfoEEElRT_PKhm = __sdk_start + 0x5c6000;
_ZN2nn6socket8resolver10serializer13DNSSerializer10FromBufferI11sockaddr_inEElRT_PKhm = __sdk_start + 0x5c6010;
_ZN2nn6socket8resolver10serializer13DNSSerializer18FromBufferInternalI8addrinfoEElRT_PKhm = __sdk_start + 0x5c6020;
_ZN2nn6socket8resolver10serializer13DNSSerializer6SizeOfIcEEmPPKT_Rj = __sdk_start + 0x5c6030;
_ZN2nn6socket8resolver10serializer13DNSSerializer6SizeOfINS0_6InAddrEEEmPPKT_Rj = __sdk_start + 0x5c6040;
_ZN2nn6socket8resolver10serializer13DNSSerializer6SizeOfI7in_addrEEmPPKT_Rj = __sdk_start + 0x5c6050;
_ZN2nn6socket8resolver10serializer13DNSSerializer10FromBufferIcEElRPPT_PKhm = __sdk_start + 0x5c6060;
_ZN2nn6socket8resolver10serializer13DNSSerializer10FromBufferItEElRT_PKhm = __sdk_start + 0x5c6070;
_ZN2nn6socket8resolver10serializer13DNSSerializer10FromBufferINS0_6InAddrEEElRPPT_PKhm = __sdk_start + 0x5c6080;
_ZN2nn6socket8resolver10serializer19FreeHostentContentsERNS0_7HostEntE = __sdk_start + 0x5c6090;
_ZN2nn6socket8resolver10serializer13DNSSerializer10FromBufferI7in_addrEElRPPT_PKhm = __sdk_start + 0x5c60a0;
_ZN2nn6socket8resolver10serializer19FreeHostentContentsER7hostent = __sdk_start + 0x5c60b0;
_ZN2nn6socket8resolver10serializer13DNSSerializer8ToBufferIcEElPhmPPT_ = __sdk_start + 0x5c60c0;
_ZN2nn6socket8resolver10serializer13DNSSerializer8ToBufferItEElPhmRKT_ = __sdk_start + 0x5c60d0;
_ZN2nn6socket8resolver10serializer13DNSSerializer8ToBufferINS0_6InAddrEEElPhmPPT_ = __sdk_start + 0x5c60e0;
_ZN2nn6socket8resolver10serializer13DNSSerializer8ToBufferI7in_addrEElPhmPPT_ = __sdk_start + 0x5c60f0;
_ZN2nn6socket8resolver10serializer13DNSSerializer12InternalHtonERKj = __sdk_start + 0x5c6100;
_ZN2nn6socket8resolver10serializer13DNSSerializer12InternalNtohERKj = __sdk_start + 0x5c6110;
_ZN2nn6socket8resolver10serializer13DNSSerializer6SizeOfINS0_6InAddrEEEmRKT_ = __sdk_start + 0x5c6120;
_ZN2nn6socket8resolver10serializer13DNSSerializer6SizeOfI7in_addrEEmRKT_ = __sdk_start + 0x5c6130;
_ZN2nn6socket8resolver10serializer13DNSSerializer12InternalNtohERKt = __sdk_start + 0x5c6140;
_ZN2nn6socket8resolver10serializer13DNSSerializer12InternalHtonERKt = __sdk_start + 0x5c6150;
_ZN2nn6socket8resolver10serializer13DNSSerializer8ToBufferINS0_14ResolverOptionEEElPhmRKT_ = __sdk_start + 0x5c6160;
_ZN2nn6socket6detail25CreateClientMonitorByHipcEPKc = __sdk_start + 0x5c61e0;
_ZN2nn6socket6detail25CreateClientServiceByHipcEiPKc = __sdk_start + 0x5c61f0;
_ZN2nn6socket8resolver16InitializeClientEv = __sdk_start + 0x5c6210;
_ZN2nn6socket8resolver19EnableResolverCallsEv = __sdk_start + 0x5c6220;
_ZN2nn6socket8resolver20DisableResolverCallsEv = __sdk_start + 0x5c6230;
_ZN2nn6socket6detail26DestroyClientServiceByHipcEPNS_2sf13SharedPointerINS0_2sf10IClient_MCEEE = __sdk_start + 0x5c6240;
_ZN2nn6socket6detail26DestroyClientMonitorByHipcEPNS_2sf13SharedPointerINS0_2sf10IClient_MCEEE = __sdk_start + 0x5c6250;
_ZN2nn6socket8resolver33WaitForAllResolverCallsToCompleteEv = __sdk_start + 0x5c6260;
_ZN2nn6socket8resolver14FinalizeClientEv = __sdk_start + 0x5c6270;
_ZN2nn6socket6detail12AllocAlignedEmm = __sdk_start + 0x5c6290;
_ZN2nn6socket6detail10socketNtopENS0_6FamilyEPKvPcj = __sdk_start + 0x5c62a0;
_ZN2nn6socket6detail10socketNtopEiPKvPcj = __sdk_start + 0x5c62b0;
_ZN2nn6socket6detail10socketPtonENS0_6FamilyEPKcPv = __sdk_start + 0x5c62c0;
_ZN2nn6socket6detail10socketPtonEiPKcPv = __sdk_start + 0x5c62d0;
_ZN2nn6socket6detail10socketAtonEPKcPNS0_6InAddrE = __sdk_start + 0x5c62e0;
_ZN2nn6socket6detail10socketAtonEPKcP7in_addr = __sdk_start + 0x5c62f0;
_ZN2nn6socket6detail10socketNtoaENS0_6InAddrE = __sdk_start + 0x5c6300;
_ZN2nn6socket6detail10socketNtoaE7in_addr = __sdk_start + 0x5c6310;
_ZN2nn6socket8resolver16GetHostEntByNameEPKcPKNS0_14ResolverOptionEm = __sdk_start + 0x5c6320;
_ZN2nn6socket8resolver13GetHostByNameEPKcPKNS0_14ResolverOptionEm = __sdk_start + 0x5c6330;
_ZN2nn6socket8resolver16GetHostEntByAddrEPKvjNS0_6FamilyEPKNS0_14ResolverOptionEm = __sdk_start + 0x5c6340;
_ZN2nn6socket8resolver13GetHostByAddrEPKvjjPKNS0_14ResolverOptionEm = __sdk_start + 0x5c6350;
_ZN2nn6socket8resolver18GetHostStringErrorEj = __sdk_start + 0x5c6360;
_ZN2nn6socket8resolver17GetGaiStringErrorEj = __sdk_start + 0x5c6370;
_ZN2nn6socket8resolver17ResolverGetOptionEPNS0_14ResolverOptionENS0_17ResolverOptionKeyE = __sdk_start + 0x5c6380;
_ZN2nn6socket8resolver17ResolverSetOptionERKNS0_14ResolverOptionE = __sdk_start + 0x5c6390;
_ZN2nn6socket8resolver11GetAddrInfoEPKcS3_PKNS0_8AddrInfoEPPS4_PKNS0_14ResolverOptionEm = __sdk_start + 0x5c63a0;
_ZN2nn6socket8resolver11GetAddrInfoEPKcS3_PK8addrinfoPPS4_PKNS0_14ResolverOptionEm = __sdk_start + 0x5c63b0;
_ZN2nn6socket8resolver11GetNameInfoEPKNS0_8SockAddrEjPcmS5_mNS0_12NameInfoFlagEPKNS0_14ResolverOptionEm = __sdk_start + 0x5c63c0;
_ZN2nn6socket8resolver11GetNameInfoEPK8sockaddrjPcmS5_miPKNS0_14ResolverOptionEm = __sdk_start + 0x5c63d0;
_ZN2nn6socket6detail18FreeCopiedAddrInfoEPNS0_8AddrInfoE = __sdk_start + 0x5c63e0;
_ZN2nn6socket8resolver10serializer20FreeAddrinfoContentsER8addrinfo = __sdk_start + 0x5c63f0;
_ZN2nn6socket8resolver3tls6Client17InternalHostErrnoEv = __sdk_start + 0x5c6400;
_ZN2nn6socket6detail6CallocEmm = __sdk_start + 0x5c6770;
_ZN2nn6socket6detail16CopyFromPlatformEPPNS0_8AddrInfoEPK8addrinfo = __sdk_start + 0x5c6780;
_ZN2nn6socket6detail15HeapIsAvailableEi = __sdk_start + 0x5c6790;
_ZN2nn6socket6detail17GetHeapGenerationEv = __sdk_start + 0x5c67a0;
_ZN2nn6socket8resolver24RefCountHelperInitializeEv = __sdk_start + 0x5c67b0;
_ZN2nn6socket8resolver3tls6Client10InitializeEv = __sdk_start + 0x5c67c0;
_ZN2nn6socket8resolver22RefCountHelperFinalizeEv = __sdk_start + 0x5c67d0;
_ZN2nn6socket8resolver3tls6Client8FinalizeEv = __sdk_start + 0x5c67e0;
_ZN2nn6socket8resolver23IncrementSocketIfNeededEv = __sdk_start + 0x5c67f0;
_ZN2nn6socket8resolver20CreateResolverByHipcERNS_2sf13SharedPointerINS1_9IResolverEEE = __sdk_start + 0x5c6800;
_ZN2nn6socket8resolver3tls6Client22SetCurrentHErrorStringEPKc = __sdk_start + 0x5c6810;
_ZN2nn6socket8resolver32DecrementSocketAndSignalIfNeededEv = __sdk_start + 0x5c6820;
_ZN2nn6socket8resolver14CreateRandomIdERi = __sdk_start + 0x5c6830;
_ZN2nn6socket8resolver10serializer13DNSSerializer6SizeOfINS0_14ResolverOptionEEEmRKT_ = __sdk_start + 0x5c6840;
_ZN2nn6socket8resolver10serializer13DNSSerializer10FromBufferINS0_14ResolverOptionEEElRT_PKhm = __sdk_start + 0x5c6850;
_ZN2nn6socket8resolver3tls6Client24SetCurrentGaiErrorStringEPKc = __sdk_start + 0x5c6860;
_ZN2nn6socket8resolver10serializer13DNSSerializer6SizeOfINS0_14ResolverOptionEEEmPKT_m = __sdk_start + 0x5c6870;
_ZN2nn6socket8resolver10serializer13DNSSerializer8ToBufferINS0_14ResolverOptionEEElPhmPKT_m = __sdk_start + 0x5c6880;
_ZN2nn6socket8resolver3tls6Client17SetCurrentHostentEPNS0_7HostEntE = __sdk_start + 0x5c6890;
_ZN2nn6socket8resolver10serializer13DNSSerializer10FromBufferINS0_7HostEntEEElRT_PKhm = __sdk_start + 0x5c68a0;
_ZN2nn6socket12GetLastErrorEv = __sdk_start + 0x5c68b0;
_ZN2nn6socket8resolver3tls6Client20SetCurrentHostentOldEP7hostent = __sdk_start + 0x5c68c0;
_ZN2nn6socket8resolver10serializer13DNSSerializer10FromBufferI7hostentEElRT_PKhm = __sdk_start + 0x5c68d0;
_ZN2nn6socket8resolver10serializer13DNSSerializer8ToBufferINS0_8AddrInfoEEElPhmRKT_ = __sdk_start + 0x5c68e0;
_ZN2nn6socket12FreeAddrInfoEPNS0_8AddrInfoE = __sdk_start + 0x5c68f0;
_ZN2nn6socket8resolver10serializer13DNSSerializer10FromBufferINS0_8AddrInfoEEElRT_PKhm = __sdk_start + 0x5c6900;
_ZN2nn6socket8resolver10serializer13DNSSerializer8ToBufferI8addrinfoEElPhmRKT_ = __sdk_start + 0x5c6910;
_ZN2nn6socket8resolver10serializer13DNSSerializer10FromBufferI8addrinfoEElRT_PKhm = __sdk_start + 0x5c6920;
_ZN2nn6socket8resolver3tls10InitializeEv = __sdk_start + 0x5c6930;
_ZN2nn6socket8resolver3tls8FinalizeEv = __sdk_start + 0x5c6940;
_ZN2nn6socket8resolver3tls12GetClientTLSERPv = __sdk_start + 0x5c6950;
_ZN2nn6socket8resolver3tls12SetClientTLSEPFvPvES3_ = __sdk_start + 0x5c6960;
_ZN2nn6socket8resolver3tls6Client24ClientThreadLocalStorageD2Ev = __sdk_start + 0x5c6970;
_ZN2nn6socket8InetPtonENS0_6FamilyEPKcPv = __sdk_start + 0x5e0120;
_ZN2nn6socket8InetNtopENS0_6FamilyEPKvPcj = __sdk_start + 0x5e0130;
_ZN2nn6socket8InetAtonEPKcPNS0_6InAddrE = __sdk_start + 0x5e0140;
_ZN2nn6socket8InetNtoaENS0_6InAddrE = __sdk_start + 0x5e0150;
_ZN2nn6socket8RecvFromEiPvmNS0_7MsgFlagEPNS0_8SockAddrEPj = __sdk_start + 0x5e0160;
_ZN2nn6socket4RecvEiPvmNS0_7MsgFlagE = __sdk_start + 0x5e0170;
_ZN2nn6socket6SendToEiPKvmNS0_7MsgFlagEPKNS0_8SockAddrEj = __sdk_start + 0x5e0180;
_ZN2nn6socket4SendEiPKvmNS0_7MsgFlagE = __sdk_start + 0x5e0190;
_ZN2nn6socket6AcceptEiPNS0_8SockAddrEPj = __sdk_start + 0x5e01a0;
_ZN2nn6socket4BindEiPKNS0_8SockAddrEj = __sdk_start + 0x5e01b0;
_ZN2nn6socket7ConnectEiPKNS0_8SockAddrEj = __sdk_start + 0x5e01c0;
_ZN2nn6socket11GetPeerNameEiPNS0_8SockAddrEPj = __sdk_start + 0x5e01d0;
_ZN2nn6socket11GetSockNameEiPNS0_8SockAddrEPj = __sdk_start + 0x5e01e0;
_ZN2nn6socket10SetSockOptEiNS0_5LevelENS0_6OptionEPKvj = __sdk_start + 0x5e01f0;
_ZN2nn6socket10GetSockOptEiNS0_5LevelENS0_6OptionEPvPj = __sdk_start + 0x5e0200;
_ZN2nn6socket8ShutdownEiNS0_14ShutdownMethodE = __sdk_start + 0x5e0210;
_ZN2nn6socket6SocketENS0_6FamilyENS0_4TypeENS0_8ProtocolE = __sdk_start + 0x5e0220;
_ZN2nn6socket16GetHostEntByNameEPKc = __sdk_start + 0x5e0230;
_ZN2nn6socket16GetHostEntByAddrEPKvjNS0_6FamilyE = __sdk_start + 0x5e0240;
_ZN2nn6socket9HStrErrorENS0_6HErrnoE = __sdk_start + 0x5e0250;
_ZN2nn6socket11GetAddrInfoEPKcS2_PKNS0_8AddrInfoEPPS3_ = __sdk_start + 0x5e0260;
_ZN2nn6socket11GAIStrErrorENS0_7AiErrnoE = __sdk_start + 0x5e0270;
_ZN2nn6socket11GetNameInfoEPKNS0_8SockAddrEjPcmS4_mNS0_12NameInfoFlagE = __sdk_start + 0x5e0280;
_ZN2nn6socket4PollEPNS0_6PollFdEmi = __sdk_start + 0x5e0290;
_ZN2nn6socket5FcntlEiNS0_12FcntlCommandEz = __sdk_start + 0x5e02a0;
_ZN2nn6socket6SelectEiPNS0_5FdSetES2_S2_PNS0_7TimeValE = __sdk_start + 0x5e02b0;
_ZN2nn6socket5IoctlEiNS0_12IoctlCommandEPvm = __sdk_start + 0x5e02c0;
_ZN2nn6socket9GetHErrorEv = __sdk_start + 0x5e02d0;
_ZN2nn6socket8resolver15g_LogLevelTableE = __sdk_start + 0xcb92b0;
_ZN2nn6socket8resolver3tls9g_TlsSlotE = __sdk_start + 0xd28130;
_ZN2nn6socket8resolver3tls27g_DidAlreadyAllocateTlsSlotE = __sdk_start + 0xd28134;
_ZN2nn4nifm6detail13RequestClientC1ENS0_17RequirementPresetENS_2os14EventClearModeE = __sdk_start + 0x38b00c;
_ZN2nn4nifm6detail13RequestClientD1Ev = __sdk_start + 0x38b19c;
_ZN2nn4nifm6detail13RequestClient19UpdateInternalStateEv = __sdk_start + 0x38b1f4;
_ZN2nn4nifm6detail13RequestClient6SubmitEv = __sdk_start + 0x38b27c;
_ZN2nn4nifm6detail13RequestClient15GetRequestStateEv = __sdk_start + 0x38b348;
_ZN2nn4nifm6detail13RequestClient13SubmitAndWaitEv = __sdk_start + 0x38b400;
_ZN2nn4nifm6detail13RequestClient6CancelEv = __sdk_start + 0x38b4d4;
_ZN2nn4nifm6detail13RequestClient9GetResultEv = __sdk_start + 0x38b510;
_ZN2nn4nifm6detail13RequestClient14GetSystemEventEv = __sdk_start + 0x38b5d0;
_ZN2nn4nifm6detail13RequestClient17GetAdditionalInfoEPNS0_14AdditionalInfoEPj = __sdk_start + 0x38b5d8;
_ZN2nn4nifm6detail13RequestClient14SetRequirementERKNS0_11RequirementE = __sdk_start + 0x38b5e8;
_ZN2nn4nifm6detail13RequestClient20SetRequirementPresetENS0_17RequirementPresetE = __sdk_start + 0x38b618;
_ZN2nn4nifm6detail13RequestClient24SetRequirementBySubmitIdEj = __sdk_start + 0x38b628;
_ZN2nn4nifm6detail13RequestClient11SetPriorityEh = __sdk_start + 0x38b638;
_ZN2nn4nifm6detail13RequestClient14SetRawPriorityEh = __sdk_start + 0x38b648;
_ZN2nn4nifm6detail13RequestClient19SetNetworkProfileIdENS_4util4UuidE = __sdk_start + 0x38b658;
_ZN2nn4nifm6detail13RequestClient13SetRejectableEb = __sdk_start + 0x38b688;
_ZN2nn4nifm6detail13RequestClient31SetConnectionConfirmationOptionENS0_28ConnectionConfirmationOptionE = __sdk_start + 0x38b69c;
_ZN2nn4nifm6detail13RequestClient13SetPersistentEb = __sdk_start + 0x38b6c0;
_ZN2nn4nifm6detail13RequestClient10SetInstantEb = __sdk_start + 0x38b6d4;
_ZN2nn4nifm6detail13RequestClient14SetSustainableEb = __sdk_start + 0x38b6e8;
_ZN2nn4nifm6detail13RequestClient9SetGreedyEb = __sdk_start + 0x38b700;
_ZN2nn4nifm6detail13RequestClient11SetSharableEb = __sdk_start + 0x38b714;
_ZN2nn4nifm6detail13RequestClient14SetKeptInSleepEb = __sdk_start + 0x38b728;
_ZN2nn4nifm6detail13RequestClient24RegisterSocketDescriptorEi = __sdk_start + 0x38b73c;
_ZN2nn4nifm6detail13RequestClient26UnregisterSocketDescriptorEi = __sdk_start + 0x38b74c;
_ZN2nn4nifm6detail13RequestClient20PrepareLibraryAppletEPNS_6applet19LibraryAppletHandleE = __sdk_start + 0x38b75c;
_ZN2nn4nifm6detail13RequestClient23GetLibaryAppletArgumentEPNS_6applet8AppletIdEPNS3_17LibraryAppletModeEPmPvm = __sdk_start + 0x38b8b8;
_ZN2nn4nifm6detail17ScanRequestClientC2ENS_2os14EventClearModeE = __sdk_start + 0x38b94c;
_ZN2nn4nifm6detail17ScanRequestClientD2Ev = __sdk_start + 0x38ba60;
_ZN2nn4nifm6detail17ScanRequestClient6SubmitEv = __sdk_start + 0x38baa8;
_ZN2nn4nifm6detail17ScanRequestClient12IsProcessingEv = __sdk_start + 0x38bb08;
_ZN2nn4nifm6detail17ScanRequestClient9GetResultEv = __sdk_start + 0x38bb70;
_ZN2nn4nifm6detail17ScanRequestClient14GetSystemEventEv = __sdk_start + 0x38bba8;
_ZN2nn4nifm6detail17ScanRequestClient11SetChannelsEPKsi = __sdk_start + 0x38bbb0;
_ZN2nn4nifm6detail29TemporaryNetworkProfileClientC2ERKNS0_18NetworkProfileDataE = __sdk_start + 0x38bc30;
_ZN2nn4nifm6detail29TemporaryNetworkProfileClientD1Ev = __sdk_start + 0x38bcc8;
_ZN2nn4nifm6detail29TemporaryNetworkProfileClient6UpdateERKNS0_18NetworkProfileDataE = __sdk_start + 0x38bce8;
_ZN2nn4nifm6detail29TemporaryNetworkProfileClient7PersistEv = __sdk_start + 0x38bd2c;
_ZN2nn4nifm6detail21ServiceProviderClientC1Ev = __sdk_start + 0x38bd80;
_ZN2nn4nifm6detail21ServiceProviderClientD1Ev = __sdk_start + 0x38bd84;
_ZN2nn4nifm6detail21ServiceProviderClient27GetUserServiceSharedPointerEPNS_2sf13SharedPointerINS1_15IGeneralServiceEEE = __sdk_start + 0x38bd88;
_ZN2nn4nifm6detail21ServiceProviderClient28GetAdminServiceSharedPointerEPNS_2sf13SharedPointerINS1_15IGeneralServiceEEE = __sdk_start + 0x38bee8;
_ZN2nn4nifm6detail21ServiceProviderClient29GetSystemServiceSharedPointerEPNS_2sf13SharedPointerINS1_15IGeneralServiceEEE = __sdk_start + 0x38c048;
_ZN2nn4nifm6detail21ServiceProviderClient8FinalizeEv = __sdk_start + 0x38c1a8;
_ZN2nn4nifm6detail42ConvertNetworkProfileBasicInfoToSfFromNifmEPNS1_2sf23NetworkProfileBasicInfoERKNS0_23NetworkProfileBasicInfoE = __sdk_start + 0x38fa80;
_ZN2nn4nifm6detail42ConvertNetworkProfileBasicInfoToNifmFromSfEPNS0_23NetworkProfileBasicInfoERKNS1_2sf23NetworkProfileBasicInfoE = __sdk_start + 0x38fb40;
_ZN2nn4nifm6detail37ConvertNetworkProfileDataToSfFromNifmEPNS1_2sf18NetworkProfileDataERKNS0_18NetworkProfileDataE = __sdk_start + 0x38fc70;
_ZN2nn4nifm6detail37ConvertNetworkProfileDataToNifmFromSfEPNS0_18NetworkProfileDataERKNS1_2sf18NetworkProfileDataE = __sdk_start + 0x38fd90;
_ZN2nn4nifm6detail34ConvertAccessPointDataToSfFromNifmEPNS1_2sf17AccessPointDataV1ERKNS0_15AccessPointDataE = __sdk_start + 0x38ff20;
_ZN2nn4nifm6detail34ConvertAccessPointDataToNifmFromSfEPNS0_15AccessPointDataERKNS1_2sf17AccessPointDataV1E = __sdk_start + 0x38ffa0;
_ZN2nn4nifm6detail39ConvertNetworkInterfaceInfoToSfFromNifmEPNS1_2sf20NetworkInterfaceInfoERKNS0_20NetworkInterfaceInfoE = __sdk_start + 0x3900a0;
_ZN2nn4nifm6detail39ConvertNetworkInterfaceInfoToNifmFromSfEPNS0_20NetworkInterfaceInfoERKNS1_2sf20NetworkInterfaceInfoE = __sdk_start + 0x3900d0;
_ZN2nn4nifm6detail43ConvertInternetConnectionStatusToSfFromNifmEPNS1_2sf24InternetConnectionStatusERKNS0_24InternetConnectionStatusE = __sdk_start + 0x390110;
_ZN2nn4nifm6detail43ConvertInternetConnectionStatusToNifmFromSfEPNS0_24InternetConnectionStatusERKNS1_2sf24InternetConnectionStatusE = __sdk_start + 0x390130;
_ZN2nn4nifm6detail34ConvertAccessPointDataToSfFromNifmEPNS1_2sf17AccessPointDataV0ERKNS0_15AccessPointDataE = __sdk_start + 0x390150;
_ZN2nn4nifm6detail24GetGeneralServicePointerEPNS_2sf13SharedPointerINS1_15IGeneralServiceEEE = __sdk_start + 0x3901e0;
_ZN2nn4nifm6detail27GetNetworkConnectionPointerEPPNS0_17NetworkConnectionE = __sdk_start + 0x390280;
_ZN2nn4nifm6detail27GetScanRequestClientPointerEPPNS1_17ScanRequestClientE = __sdk_start + 0x390330;
_ZN2nn4nifm6detail26GetNetworkConnectionResultEv = __sdk_start + 0x3903e0;
_ZN2nn4nifm10InitializeEv = __sdk_start + 0x390480;
_ZN2nn4nifm15InitializeAdminEv = __sdk_start + 0x3905d0;
_ZN2nn4nifm16InitializeSystemEv = __sdk_start + 0x3905e0;
_ZN2nn4nifm15FinalizeForTestEv = __sdk_start + 0x3905f0;
_ZN2nn4nifm20FinalizeAdminForTestEv = __sdk_start + 0x3906d0;
_ZN2nn4nifm21FinalizeSystemForTestEv = __sdk_start + 0x3906e0;
_ZN2nn4nifm28SetAcceptableNetworkTypeFlagEj = __sdk_start + 0x390740;
_ZN2nn4nifm28GetAcceptableNetworkTypeFlagEPj = __sdk_start + 0x3907c0;
_ZN2nn4nifm11GetClientIdEv = __sdk_start + 0x390840;
_ZN2nn4nifm28IsAnyInternetRequestAcceptedENS0_8ClientIdE = __sdk_start + 0x3908c0;
_ZN2nn4nifm30IsAnyForegroundRequestAcceptedEv = __sdk_start + 0x390950;
_ZN2nn4nifm27SetBackgroundRequestEnabledEb = __sdk_start + 0x3909e0;
_ZN2nn4nifm38SetWirelessCommunicationEnabledForTestEb = __sdk_start + 0x390a60;
_ZN2nn4nifm38SetEthernetCommunicationEnabledForTestEb = __sdk_start + 0x390ae0;
_ZN2nn4nifm31SetEthernetCommunicationEnabledEb = __sdk_start + 0x390b60;
_ZN2nn4nifm30IsEthernetCommunicationEnabledEv = __sdk_start + 0x390bc0;
_ZN2nn4nifm10PutToSleepEv = __sdk_start + 0x390c40;
_ZN2nn4nifm6WakeUpEv = __sdk_start + 0x390cb0;
_ZN2nn4nifm8ShutdownEv = __sdk_start + 0x390d20;
_ZN2nn4nifm18SetExclusiveClientENS0_8ClientIdE = __sdk_start + 0x390d90;
_ZN2nn4nifm19GetDefaultIpSettingEPNS0_13IpSettingDataE = __sdk_start + 0x390e10;
_ZN2nn4nifm19SetDefaultIpSettingERKNS0_13IpSettingDataE = __sdk_start + 0x390e90;
_ZN2nn4nifm35PrepareHandlingNetworkRequestResultENS0_13RequestHandleEPNS_6applet19LibraryAppletHandleE = __sdk_start + 0x390f10;
_ZN2nn4nifm33StartHandlingNetworkRequestResultERKNS_6applet19LibraryAppletHandleEPv = __sdk_start + 0x390f40;
_ZN2nn4nifm34FinishHandlingNetworkRequestResultERKNS_6applet19LibraryAppletHandleE = __sdk_start + 0x390fa0;
_ZN2nn4nifm37GetResultHandlingNetworkRequestResultERKNS_6applet13StorageHandleE = __sdk_start + 0x391060;
_ZN2nn4nifm27GetInternetConnectionStatusEPNS0_24InternetConnectionStatusE = __sdk_start + 0x3910d0;
_ZN2nn4nifm26GetCurrentPrimaryIpAddressEPNS_6socket6InAddrE = __sdk_start + 0x391160;
_ZN2nn4nifm26GetCurrentPrimaryIpAddressEP7in_addr = __sdk_start + 0x3911e0;
_ZN2nn4nifm22GetCurrentIpConfigInfoEPNS_6socket6InAddrES3_S3_S3_S3_ = __sdk_start + 0x391260;
_ZN2nn4nifm22GetCurrentIpConfigInfoEP7in_addrS2_S2_S2_S2_ = __sdk_start + 0x391360;
_ZN2nn4nifm20SubmitNetworkRequestEv = __sdk_start + 0x391460;
_ZN2nn4nifm27SubmitNetworkRequestAndWaitEv = __sdk_start + 0x3914b0;
_ZN2nn4nifm20CancelNetworkRequestEv = __sdk_start + 0x391500;
_ZN2nn4nifm22IsNetworkRequestOnHoldEv = __sdk_start + 0x391540;
_ZN2nn4nifm18IsNetworkAvailableEv = __sdk_start + 0x391590;
_ZN2nn4nifm31HandleNetworkRequestErrorResultEv = __sdk_start + 0x3915e0;
_ZN2nn4nifm19SetLocalNetworkModeEb = __sdk_start + 0x391630;
_ZN2nn4nifm33GetGlobalNetworkConnectionPointerEv = __sdk_start + 0x391680;
_ZN2nn4nifm24GetCurrentNetworkProfileEPNS0_18NetworkProfileDataE = __sdk_start + 0x3916b0;
_ZN2nn4nifm21GetCurrentAccessPointEPNS0_15AccessPointDataE = __sdk_start + 0x391730;
_ZN2nn4nifm26EnumerateNetworkInterfacesEPNS0_20NetworkInterfaceInfoEPiij = __sdk_start + 0x3917b0;
_ZN2nn4nifm24EnumerateNetworkProfilesEPNS0_23NetworkProfileBasicInfoEPiih = __sdk_start + 0x3918b0;
_ZN2nn4nifm17GetNetworkProfileEPNS0_18NetworkProfileDataERKNS_4util4UuidE = __sdk_start + 0x3919f0;
_ZN2nn4nifm17SetNetworkProfileEPNS_4util4UuidERKNS0_18NetworkProfileDataE = __sdk_start + 0x391a80;
_ZN2nn4nifm20RemoveNetworkProfileERKNS_4util4UuidE = __sdk_start + 0x391b10;
_ZN2nn4nifm18GetSsidListVersionEPNS0_15SsidListVersionE = __sdk_start + 0x391b90;
_ZN2nn4nifm30PersistTemporaryNetworkProfileENS0_20NetworkProfileHandleE = __sdk_start + 0x391c10;
_ZN2nn4nifm28GetCurrentAccessPointChannelEPt = __sdk_start + 0x391c20;
_ZN2nn4nifm34NotifyApplicationRightsInvalidatedENS_2os9ProcessIdE = __sdk_start + 0x391cc0;
_ZN2nn4nifm28NotifyConnectionStateChangedEv = __sdk_start + 0x391d30;
_ZN2nn4nifm22GetCurrentProxySettingEPNS0_12ProxySettingE = __sdk_start + 0x391d90;
_ZN2nn4nifm27SetRequestRequirementPresetENS0_13RequestHandleENS0_17RequirementPresetE = __sdk_start + 0x391e10;
_ZN2nn4nifm31SetRequestRequirementBySubmitIdENS0_13RequestHandleEj = __sdk_start + 0x391e20;
_ZN2nn4nifm18SetRequestPriorityENS0_13RequestHandleEh = __sdk_start + 0x391e30;
_ZN2nn4nifm21SetRequestRawPriorityENS0_13RequestHandleEh = __sdk_start + 0x391e40;
_ZN2nn4nifm26SetRequestNetworkProfileIdENS0_13RequestHandleERKNS_4util4UuidE = __sdk_start + 0x391e50;
_ZN2nn4nifm20SetRequestRejectableENS0_13RequestHandleEb = __sdk_start + 0x391e60;
_ZN2nn4nifm38SetRequestConnectionConfirmationOptionENS0_13RequestHandleENS0_28ConnectionConfirmationOptionE = __sdk_start + 0x391e70;
_ZN2nn4nifm20SetRequestPersistentENS0_13RequestHandleEb = __sdk_start + 0x391e80;
_ZN2nn4nifm17SetRequestInstantENS0_13RequestHandleEb = __sdk_start + 0x391e90;
_ZN2nn4nifm21SetRequestSustainableENS0_13RequestHandleEb = __sdk_start + 0x391ea0;
_ZN2nn4nifm16SetRequestGreedyENS0_13RequestHandleEb = __sdk_start + 0x391eb0;
_ZN2nn4nifm18SetRequestSharableENS0_13RequestHandleEb = __sdk_start + 0x391ec0;
_ZN2nn4nifm21SetRequestKeptInSleepENS0_13RequestHandleEb = __sdk_start + 0x391ed0;
_ZN2nn4nifm31RegisterRequestSocketDescriptorENS0_13RequestHandleEi = __sdk_start + 0x391ee0;
_ZN2nn4nifm33UnregisterRequestSocketDescriptorENS0_13RequestHandleE = __sdk_start + 0x391ef0;
_ZN2nn4nifm24GetRequestAdditionalInfoEPNS0_14AdditionalInfoEPjNS0_13RequestHandleE = __sdk_start + 0x391f00;
_ZN2nn4nifm23GetRequestClientPointerENS0_13RequestHandleE = __sdk_start + 0x391f20;
_ZN2nn4nifm4ScanEv = __sdk_start + 0x391f30;
_ZN2nn4nifm4ScanEPKsiNS0_17RequirementPresetE = __sdk_start + 0x391f40;
_ZN2nn4nifm4ScanEPKsi = __sdk_start + 0x392090;
_ZN2nn4nifm4ScanENS0_17RequirementPresetE = __sdk_start + 0x3920a0;
_ZN2nn4nifm18GetAllowedChannelsEPsPii = __sdk_start + 0x3920b0;
_ZN2nn4nifm11GetScanDataEPNS0_15AccessPointDataEPii = __sdk_start + 0x392140;
_ZN2nn4nifm25ConfirmSystemAvailabilityEv = __sdk_start + 0x392250;
_ZN2nn4nifm22BindTelemetryInfoEventEPNS_2os15SystemEventTypeENS1_14EventClearModeE = __sdk_start + 0x3922c0;
_ZN2nn4nifm17GetTelemetoryInfoEPNS0_13TelemetryInfoE = __sdk_start + 0x392360;
_ZN2nn4nifm31RegisterTemporaryNetworkProfileERKNS0_13IpSettingDataE = __sdk_start + 0x3923d0;
_ZN2nn4nifm31RegisterTemporaryNetworkProfileERKNS0_19WirelessSettingDataERKNS0_13IpSettingDataE = __sdk_start + 0x3924b0;
_ZN2nn4nifm33UnregisterTemporaryNetworkProfileEv = __sdk_start + 0x3925c0;
_ZN2nn4nifm21IsIpAddressConflictedEv = __sdk_start + 0x392670;
_ZN2nn4nifm6detail35SetRequestTemporaryNetworkProfileIdENS0_13RequestHandleE = __sdk_start + 0x3926a0;
_ZN2nn4nifm31SetWirelessCommunicationEnabledEb = __sdk_start + 0x3926f0;
_ZN2nn4nifm30IsWirelessCommunicationEnabledEv = __sdk_start + 0x392750;
_ZN2nn4nifm22SetWowlDelayedWakeTimeEi = __sdk_start + 0x3927d0;
_ZN2nn4nifm17NetworkConnectionC1Ev = __sdk_start + 0x392840;
_ZN2nn4nifm17NetworkConnectionC2ENS_2os14EventClearModeE = __sdk_start + 0x39284c;
_ZN2nn4nifm17NetworkConnectionD1Ev = __sdk_start + 0x39285c;
_ZN2nn4nifm17NetworkConnection13SubmitRequestEv = __sdk_start + 0x392860;
_ZN2nn4nifm17NetworkConnection20SubmitRequestAndWaitEv = __sdk_start + 0x392864;
_ZN2nn4nifm17NetworkConnection13CancelRequestEv = __sdk_start + 0x392868;
_ZN2nn4nifm17NetworkConnection15IsRequestOnHoldEv = __sdk_start + 0x39286c;
_ZN2nn4nifm17NetworkConnection11IsAvailableEv = __sdk_start + 0x392888;
_ZN2nn4nifm17NetworkConnection14GetSystemEventEv = __sdk_start + 0x3928a4;
_ZN2nn4nifm17NetworkConnection15GetRequestStateEv = __sdk_start + 0x3928a8;
_ZN2nn4nifm17NetworkConnection9GetResultEv = __sdk_start + 0x3928ac;
_ZN2nn4nifm17NetworkConnection16GetRequestHandleEv = __sdk_start + 0x3928b0;
_ZN2nn4nifm17NetworkConnection26HandleNetworkRequestResultEv = __sdk_start + 0x3928b4;
_ZN2nn4nifm17NetworkConnection31HandleNetworkRequestErrorResultEv = __sdk_start + 0x392920;
_ZN2nn4nifm7RequestC2ERKNS0_17RequestParametersE = __sdk_start + 0x3929a0;
_ZN2nn4nifm7RequestC2ERKNS0_17RequestParametersENS_2os14EventClearModeE = __sdk_start + 0x3929d8;
_ZN2nn4nifm7RequestD1Ev = __sdk_start + 0x392a1c;
_ZN2nn4nifm7Request6SubmitEv = __sdk_start + 0x392a20;
_ZN2nn4nifm7Request13SubmitAndWaitEv = __sdk_start + 0x392a24;
_ZN2nn4nifm7Request6CancelEv = __sdk_start + 0x392a28;
_ZN2nn4nifm7Request15GetRequestStateEv = __sdk_start + 0x392a2c;
_ZN2nn4nifm7Request9GetResultEv = __sdk_start + 0x392a30;
_ZN2nn4nifm7Request9GetHandleEv = __sdk_start + 0x392a34;
_ZN2nn4nifm7Request14GetSystemEventEv = __sdk_start + 0x392a38;
_ZN2nn4nifm23TemporaryNetworkProfileC1ERKNS0_18NetworkProfileDataE = __sdk_start + 0x392a3c;
_ZN2nn4nifm23TemporaryNetworkProfileD1Ev = __sdk_start + 0x392a40;
_ZN2nn4nifm23TemporaryNetworkProfile6UpdateERKNS0_18NetworkProfileDataE = __sdk_start + 0x392a48;
_ZN2nn4nifm23TemporaryNetworkProfile9GetHandleEv = __sdk_start + 0x392a4c;
_ZN2nn4nifm11GetClientIdEv = __sdk_start + 0x5c8190;
_ZN2nn4nifm28IsAnyInternetRequestAcceptedENS0_8ClientIdE = __sdk_start + 0x5c81a0;
_ZN2nn4nifm6detail24GetGeneralServicePointerEPNS_2sf13SharedPointerINS1_15IGeneralServiceEEE = __sdk_start + 0x5d4d50;
_ZN2nn4nifm6detail13RequestClient15GetRequestStateEv = __sdk_start + 0x5d4d60;
_ZN2nn4nifm6detail13RequestClient6SubmitEv = __sdk_start + 0x5d4d70;
_ZN2nn4nifm6detail37ConvertNetworkProfileDataToSfFromNifmEPNS1_2sf18NetworkProfileDataERKNS0_18NetworkProfileDataE = __sdk_start + 0x5d4d80;
_ZN2nn4nifm17NetworkConnectionC1Ev = __sdk_start + 0x5d4f60;
_ZN2nn4nifm6detail17ScanRequestClientC1ENS_2os14EventClearModeE = __sdk_start + 0x5d4f70;
_ZN2nn4nifm17NetworkConnection9GetResultEv = __sdk_start + 0x5d4f80;
_ZN2nn4nifm6detail21ServiceProviderClientC1Ev = __sdk_start + 0x5d4f90;
_ZN2nn4nifm6detail21ServiceProviderClient27GetUserServiceSharedPointerEPNS_2sf13SharedPointerINS1_15IGeneralServiceEEE = __sdk_start + 0x5d4fa0;
_ZN2nn4nifm6detail21ServiceProviderClient28GetAdminServiceSharedPointerEPNS_2sf13SharedPointerINS1_15IGeneralServiceEEE = __sdk_start + 0x5d4fb0;
_ZN2nn4nifm6detail21ServiceProviderClient29GetSystemServiceSharedPointerEPNS_2sf13SharedPointerINS1_15IGeneralServiceEEE = __sdk_start + 0x5d4fc0;
_ZN2nn4nifm17NetworkConnectionD1Ev = __sdk_start + 0x5d4fd0;
_ZN2nn4nifm6detail17ScanRequestClientD1Ev = __sdk_start + 0x5d4fe0;
_ZN2nn4nifm6detail21ServiceProviderClient8FinalizeEv = __sdk_start + 0x5d4ff0;
_ZN2nn4nifm6detail13RequestClient9GetResultEv = __sdk_start + 0x5d5000;
_ZN2nn4nifm6detail13RequestClient20PrepareLibraryAppletEPNS_6applet19LibraryAppletHandleE = __sdk_start + 0x5d5010;
_ZN2nn4nifm6detail43ConvertInternetConnectionStatusToNifmFromSfEPNS0_24InternetConnectionStatusERKNS1_2sf24InternetConnectionStatusE = __sdk_start + 0x5d5060;
_ZN2nn4nifm6detail27GetNetworkConnectionPointerEPPNS0_17NetworkConnectionE = __sdk_start + 0x5d5070;
_ZN2nn4nifm17NetworkConnection16GetRequestHandleEv = __sdk_start + 0x5d5080;
_ZN2nn4nifm6detail35SetRequestTemporaryNetworkProfileIdENS0_13RequestHandleE = __sdk_start + 0x5d5090;
_ZN2nn4nifm17NetworkConnection13SubmitRequestEv = __sdk_start + 0x5d50a0;
_ZN2nn4nifm17NetworkConnection20SubmitRequestAndWaitEv = __sdk_start + 0x5d50b0;
_ZN2nn4nifm17NetworkConnection13CancelRequestEv = __sdk_start + 0x5d50c0;
_ZN2nn4nifm17NetworkConnection15IsRequestOnHoldEv = __sdk_start + 0x5d50d0;
_ZN2nn4nifm17NetworkConnection11IsAvailableEv = __sdk_start + 0x5d50e0;
_ZN2nn4nifm17NetworkConnection31HandleNetworkRequestErrorResultEv = __sdk_start + 0x5d50f0;
_ZN2nn4nifm38SetRequestConnectionConfirmationOptionENS0_13RequestHandleENS0_28ConnectionConfirmationOptionE = __sdk_start + 0x5d5100;
_ZN2nn4nifm6detail37ConvertNetworkProfileDataToNifmFromSfEPNS0_18NetworkProfileDataERKNS1_2sf18NetworkProfileDataE = __sdk_start + 0x5d5110;
_ZN2nn4nifm6detail34ConvertAccessPointDataToNifmFromSfEPNS0_15AccessPointDataERKNS1_2sf17AccessPointDataV1E = __sdk_start + 0x5d5120;
_ZN2nn4nifm6detail39ConvertNetworkInterfaceInfoToNifmFromSfEPNS0_20NetworkInterfaceInfoERKNS1_2sf20NetworkInterfaceInfoE = __sdk_start + 0x5d5130;
_ZN2nn4nifm6detail42ConvertNetworkProfileBasicInfoToNifmFromSfEPNS0_23NetworkProfileBasicInfoERKNS1_2sf23NetworkProfileBasicInfoE = __sdk_start + 0x5d5140;
_ZN2nn4nifm6detail29TemporaryNetworkProfileClient7PersistEv = __sdk_start + 0x5d5150;
_ZN2nn4nifm24GetCurrentNetworkProfileEPNS0_18NetworkProfileDataE = __sdk_start + 0x5d5160;
_ZN2nn4nifm6detail13RequestClient20SetRequirementPresetENS0_17RequirementPresetE = __sdk_start + 0x5d5170;
_ZN2nn4nifm6detail13RequestClient24SetRequirementBySubmitIdEj = __sdk_start + 0x5d5180;
_ZN2nn4nifm6detail13RequestClient11SetPriorityEh = __sdk_start + 0x5d5190;
_ZN2nn4nifm6detail13RequestClient14SetRawPriorityEh = __sdk_start + 0x5d51a0;
_ZN2nn4nifm6detail13RequestClient19SetNetworkProfileIdENS_4util4UuidE = __sdk_start + 0x5d51b0;
_ZN2nn4nifm6detail13RequestClient13SetRejectableEb = __sdk_start + 0x5d51c0;
_ZN2nn4nifm6detail13RequestClient31SetConnectionConfirmationOptionENS0_28ConnectionConfirmationOptionE = __sdk_start + 0x5d51d0;
_ZN2nn4nifm6detail13RequestClient13SetPersistentEb = __sdk_start + 0x5d51e0;
_ZN2nn4nifm6detail13RequestClient10SetInstantEb = __sdk_start + 0x5d51f0;
_ZN2nn4nifm6detail13RequestClient14SetSustainableEb = __sdk_start + 0x5d5200;
_ZN2nn4nifm6detail13RequestClient9SetGreedyEb = __sdk_start + 0x5d5210;
_ZN2nn4nifm6detail13RequestClient11SetSharableEb = __sdk_start + 0x5d5220;
_ZN2nn4nifm6detail13RequestClient14SetKeptInSleepEb = __sdk_start + 0x5d5230;
_ZN2nn4nifm6detail13RequestClient24RegisterSocketDescriptorEi = __sdk_start + 0x5d5240;
_ZN2nn4nifm6detail13RequestClient26UnregisterSocketDescriptorEi = __sdk_start + 0x5d5250;
_ZN2nn4nifm6detail13RequestClient17GetAdditionalInfoEPNS0_14AdditionalInfoEPj = __sdk_start + 0x5d5260;
_ZN2nn4nifm4ScanEPKsiNS0_17RequirementPresetE = __sdk_start + 0x5d5270;
_ZN2nn4nifm6detail27GetScanRequestClientPointerEPPNS1_17ScanRequestClientE = __sdk_start + 0x5d5280;
_ZN2nn4nifm6detail17ScanRequestClient12IsProcessingEv = __sdk_start + 0x5d5290;
_ZN2nn4nifm6detail17ScanRequestClient14GetSystemEventEv = __sdk_start + 0x5d52a0;
_ZN2nn4nifm6detail17ScanRequestClient9GetResultEv = __sdk_start + 0x5d52b0;
_ZN2nn4nifm27GetInternetConnectionStatusEPNS0_24InternetConnectionStatusE = __sdk_start + 0x5d52c0;
_ZN2nn4nifm6detail17ScanRequestClient11SetChannelsEPKsi = __sdk_start + 0x5d52d0;
_ZN2nn4nifm6detail17ScanRequestClient6SubmitEv = __sdk_start + 0x5d52e0;
_ZN2nn4nifm27SetRequestRequirementPresetENS0_13RequestHandleENS0_17RequirementPresetE = __sdk_start + 0x5d52f0;
_ZN2nn4nifm33UnregisterTemporaryNetworkProfileEv = __sdk_start + 0x5d5300;
_ZN2nn4nifm23TemporaryNetworkProfileC1ERKNS0_18NetworkProfileDataE = __sdk_start + 0x5d5310;
_ZN2nn4nifm23TemporaryNetworkProfileD1Ev = __sdk_start + 0x5d5320;
_ZN2nn4nifm17NetworkConnection15GetRequestStateEv = __sdk_start + 0x5d5330;
_ZN2nn4nifm26SetRequestNetworkProfileIdENS0_13RequestHandleERKNS_4util4UuidE = __sdk_start + 0x5d5340;
_ZN2nn4nifm6detail26GetNetworkConnectionResultEv = __sdk_start + 0x5d5350;
_ZN2nn4nifm7RequestC1ERKNS0_17RequestParametersE = __sdk_start + 0x5d5370;
_ZN2nn4nifm7RequestC1ERKNS0_17RequestParametersENS_2os14EventClearModeE = __sdk_start + 0x5d5380;
_ZN2nn4nifm7RequestD1Ev = __sdk_start + 0x5d5390;
_ZN2nn4nifm7Request6SubmitEv = __sdk_start + 0x5d53a0;
_ZN2nn4nifm7Request13SubmitAndWaitEv = __sdk_start + 0x5d53b0;
_ZN2nn4nifm7Request6CancelEv = __sdk_start + 0x5d53c0;
_ZN2nn4nifm7Request15GetRequestStateEv = __sdk_start + 0x5d53d0;
_ZN2nn4nifm7Request14GetSystemEventEv = __sdk_start + 0x5d53e0;
_ZN2nn4nifm7Request9GetResultEv = __sdk_start + 0x5d53f0;
_ZN2nn4nifm7Request9GetHandleEv = __sdk_start + 0x5d5400;
_ZN2nn4nifm35PrepareHandlingNetworkRequestResultENS0_13RequestHandleEPNS_6applet19LibraryAppletHandleE = __sdk_start + 0x5d5410;
_ZN2nn4nifm33StartHandlingNetworkRequestResultERKNS_6applet19LibraryAppletHandleEPv = __sdk_start + 0x5d5420;
_ZN2nn4nifm34FinishHandlingNetworkRequestResultERKNS_6applet19LibraryAppletHandleE = __sdk_start + 0x5d5430;
_ZN2nn4nifm6detail13RequestClientC1ENS0_17RequirementPresetENS_2os14EventClearModeE = __sdk_start + 0x5d5440;
_ZN2nn4nifm6detail13RequestClientD1Ev = __sdk_start + 0x5d5450;
_ZN2nn4nifm6detail13RequestClient13SubmitAndWaitEv = __sdk_start + 0x5d5460;
_ZN2nn4nifm6detail13RequestClient6CancelEv = __sdk_start + 0x5d5470;
_ZN2nn4nifm6detail13RequestClient14GetSystemEventEv = __sdk_start + 0x5d5480;
_ZN2nn4nifm6detail29TemporaryNetworkProfileClientC1ERKNS0_18NetworkProfileDataE = __sdk_start + 0x5d5490;
_ZN2nn4nifm6detail29TemporaryNetworkProfileClientD1Ev = __sdk_start + 0x5d54a0;
_ZN2nn4nifm6detail29TemporaryNetworkProfileClient6UpdateERKNS0_18NetworkProfileDataE = __sdk_start + 0x5d54c0;